

Microchip MPLAB XC8 Assembler V2.41 build 20230208172133 
                                                                                               Sat Mar 16 23:29:33 2024

Microchip MPLAB XC8 C Compiler v2.41 (Free license) build 20230208172133 Og1 
     1                           	processor	16F18313
     2                           	pagewidth 120
     3                           	opt	flic
     4                           	psect	cinit,global,class=CODE,merge=1,delta=2
     5                           	psect	bssCOMMON,global,class=COMMON,space=1,delta=1,noexec
     6                           	psect	bssBANK0,global,class=BANK0,space=1,delta=1,noexec
     7                           	psect	cstackCOMMON,global,class=COMMON,space=1,delta=1,noexec
     8                           	psect	cstackBANK0,global,class=BANK0,space=1,delta=1,noexec
     9                           	psect	maintext,global,class=CODE,merge=1,split=1,delta=2
    10                           	psect	text1,local,class=CODE,merge=1,delta=2
    11                           	psect	text2,local,class=CODE,merge=1,delta=2
    12                           	psect	text3,local,class=CODE,merge=1,delta=2
    13                           	psect	text4,local,class=CODE,merge=1,delta=2,group=1
    14                           	psect	text5,local,class=CODE,merge=1,delta=2,group=1
    15                           	psect	intentry,global,class=CODE,delta=2
    16                           	psect	text7,local,class=CODE,merge=1,delta=2
    17                           	psect	text8,local,class=CODE,merge=1,delta=2,group=1
    18                           	psect	text9,local,class=CODE,merge=1,delta=2,group=1
    19                           	psect	idloc,global,abs,ovrld,class=IDLOC,space=5,delta=2,noexec
    20                           	psect	config,global,abs,ovrld,class=CONFIG,space=4,delta=2,noexec
    21                           	dabs	1,0x7E,2
    22     0000                     
    23                           ; Generated 19/07/2022 GMT
    24                           ; 
    25                           ; Copyright © 2022, Microchip Technology Inc. and its subsidiaries ("Microchip")
    26                           ; All rights reserved.
    27                           ; 
    28                           ; This software is developed by Microchip Technology Inc. and its subsidiaries ("Microch
      +                          ip").
    29                           ; 
    30                           ; Redistribution and use in source and binary forms, with or without modification, are
    31                           ; permitted provided that the following conditions are met:
    32                           ; 
    33                           ;     1. Redistributions of source code must retain the above copyright notice, this lis
      +                          t of
    34                           ;        conditions and the following disclaimer.
    35                           ; 
    36                           ;     2. Redistributions in binary form must reproduce the above copyright notice, this 
      +                          list
    37                           ;        of conditions and the following disclaimer in the documentation and/or other
    38                           ;        materials provided with the distribution. Publication is not required when
    39                           ;        this file is used in an embedded application.
    40                           ; 
    41                           ;     3. Microchip's name may not be used to endorse or promote products derived from th
      +                          is
    42                           ;        software without specific prior written permission.
    43                           ; 
    44                           ; THIS SOFTWARE IS PROVIDED BY MICROCHIP "AS IS" AND ANY EXPRESS OR IMPLIED WARRANTIES,
    45                           ; INCLUDING, BUT NOT LIMITED TO, THE IMPLIED WARRANTIES OF MERCHANTABILITY AND FITNESS F
      +                          OR
    46                           ; PURPOSE ARE DISCLAIMED.  IN NO EVENT SHALL MICROCHIP BE LIABLE FOR ANY DIRECT, INDIREC
      +                          T,
    47                           ; INCIDENTAL, SPECIAL, EXEMPLARY, OR CONSEQUENTIAL DAMAGES (INCLUDING BUT NOT LIMITED TO
    48                           ; PROCUREMENT OF SUBSTITUTE GOODS OR SERVICES; LOSS OF USE, DATA OR PROFITS; OR BUSINESS
    49                           ; INTERRUPTION) HOWSOEVER CAUSED AND ON ANY THEORY OF LIABILITY, WHETHER IN CONTRACT, ST
      +                          RICT
    50                           ; LIABILITY, OR TORT (INCLUDING NEGLIGENCE OR OTHERWISE) ARISING IN ANY WAY OUT OF THE U
      +                          SE OF
    51                           ; THIS SOFTWARE, EVEN IF ADVISED OF THE POSSIBILITY OF SUCH DAMAGE.
    52                           ; 
    53                           ; 
    54                           ; Code-generator required, PIC16F18313 Definitions
    55                           ; 
    56                           ; SFR Addresses
    57     0000                     	;# 
    58     0001                     	;# 
    59     0002                     	;# 
    60     0003                     	;# 
    61     0004                     	;# 
    62     0005                     	;# 
    63     0006                     	;# 
    64     0007                     	;# 
    65     0008                     	;# 
    66     0009                     	;# 
    67     000A                     	;# 
    68     000B                     	;# 
    69     000C                     	;# 
    70     0010                     	;# 
    71     0011                     	;# 
    72     0012                     	;# 
    73     0013                     	;# 
    74     0014                     	;# 
    75     0015                     	;# 
    76     0015                     	;# 
    77     0016                     	;# 
    78     0016                     	;# 
    79     0017                     	;# 
    80     0018                     	;# 
    81     0019                     	;# 
    82     0019                     	;# 
    83     001A                     	;# 
    84     001B                     	;# 
    85     001C                     	;# 
    86     001D                     	;# 
    87     001E                     	;# 
    88     001F                     	;# 
    89     008C                     	;# 
    90     0090                     	;# 
    91     0091                     	;# 
    92     0092                     	;# 
    93     0093                     	;# 
    94     0094                     	;# 
    95     0097                     	;# 
    96     009B                     	;# 
    97     009B                     	;# 
    98     009C                     	;# 
    99     009D                     	;# 
   100     009E                     	;# 
   101     009F                     	;# 
   102     010C                     	;# 
   103     0111                     	;# 
   104     0112                     	;# 
   105     0115                     	;# 
   106     0116                     	;# 
   107     0117                     	;# 
   108     0118                     	;# 
   109     0119                     	;# 
   110     018C                     	;# 
   111     0197                     	;# 
   112     0199                     	;# 
   113     0199                     	;# 
   114     0199                     	;# 
   115     019A                     	;# 
   116     019A                     	;# 
   117     019A                     	;# 
   118     019B                     	;# 
   119     019B                     	;# 
   120     019B                     	;# 
   121     019B                     	;# 
   122     019B                     	;# 
   123     019C                     	;# 
   124     019C                     	;# 
   125     019C                     	;# 
   126     019D                     	;# 
   127     019D                     	;# 
   128     019D                     	;# 
   129     019E                     	;# 
   130     019E                     	;# 
   131     019E                     	;# 
   132     019F                     	;# 
   133     019F                     	;# 
   134     019F                     	;# 
   135     019F                     	;# 
   136     019F                     	;# 
   137     020C                     	;# 
   138     0211                     	;# 
   139     0211                     	;# 
   140     0212                     	;# 
   141     0212                     	;# 
   142     0213                     	;# 
   143     0213                     	;# 
   144     0214                     	;# 
   145     0214                     	;# 
   146     0215                     	;# 
   147     0215                     	;# 
   148     0215                     	;# 
   149     0215                     	;# 
   150     0216                     	;# 
   151     0216                     	;# 
   152     0217                     	;# 
   153     0217                     	;# 
   154     028C                     	;# 
   155     0291                     	;# 
   156     0291                     	;# 
   157     0292                     	;# 
   158     0293                     	;# 
   159     0294                     	;# 
   160     0295                     	;# 
   161     0295                     	;# 
   162     0296                     	;# 
   163     0297                     	;# 
   164     0298                     	;# 
   165     030C                     	;# 
   166     038C                     	;# 
   167     0391                     	;# 
   168     0392                     	;# 
   169     0393                     	;# 
   170     039A                     	;# 
   171     039C                     	;# 
   172     039D                     	;# 
   173     039E                     	;# 
   174     039F                     	;# 
   175     0498                     	;# 
   176     0498                     	;# 
   177     0499                     	;# 
   178     049A                     	;# 
   179     049B                     	;# 
   180     049B                     	;# 
   181     049C                     	;# 
   182     049D                     	;# 
   183     049E                     	;# 
   184     049F                     	;# 
   185     0617                     	;# 
   186     0618                     	;# 
   187     0619                     	;# 
   188     0619                     	;# 
   189     061A                     	;# 
   190     061B                     	;# 
   191     061C                     	;# 
   192     061C                     	;# 
   193     0691                     	;# 
   194     0692                     	;# 
   195     0693                     	;# 
   196     0694                     	;# 
   197     0695                     	;# 
   198     0696                     	;# 
   199     0697                     	;# 
   200     0698                     	;# 
   201     0699                     	;# 
   202     0891                     	;# 
   203     0891                     	;# 
   204     0891                     	;# 
   205     0891                     	;# 
   206     0891                     	;# 
   207     0891                     	;# 
   208     0892                     	;# 
   209     0892                     	;# 
   210     0892                     	;# 
   211     0893                     	;# 
   212     0893                     	;# 
   213     0893                     	;# 
   214     0893                     	;# 
   215     0893                     	;# 
   216     0893                     	;# 
   217     0894                     	;# 
   218     0894                     	;# 
   219     0894                     	;# 
   220     0895                     	;# 
   221     0895                     	;# 
   222     0895                     	;# 
   223     0896                     	;# 
   224     0896                     	;# 
   225     0896                     	;# 
   226     089B                     	;# 
   227     0911                     	;# 
   228     0912                     	;# 
   229     0913                     	;# 
   230     0914                     	;# 
   231     0915                     	;# 
   232     0916                     	;# 
   233     0918                     	;# 
   234     0919                     	;# 
   235     091A                     	;# 
   236     091B                     	;# 
   237     091C                     	;# 
   238     091D                     	;# 
   239     091E                     	;# 
   240     091F                     	;# 
   241     0E0F                     	;# 
   242     0E10                     	;# 
   243     0E11                     	;# 
   244     0E12                     	;# 
   245     0E13                     	;# 
   246     0E14                     	;# 
   247     0E15                     	;# 
   248     0E18                     	;# 
   249     0E1A                     	;# 
   250     0E1B                     	;# 
   251     0E1C                     	;# 
   252     0E20                     	;# 
   253     0E21                     	;# 
   254     0E22                     	;# 
   255     0E24                     	;# 
   256     0E25                     	;# 
   257     0E28                     	;# 
   258     0E29                     	;# 
   259     0E2A                     	;# 
   260     0E2B                     	;# 
   261     0E90                     	;# 
   262     0E91                     	;# 
   263     0E92                     	;# 
   264     0E94                     	;# 
   265     0E95                     	;# 
   266     0F0F                     	;# 
   267     0F10                     	;# 
   268     0F11                     	;# 
   269     0F12                     	;# 
   270     0F13                     	;# 
   271     0F14                     	;# 
   272     0F15                     	;# 
   273     0F16                     	;# 
   274     0F17                     	;# 
   275     0F18                     	;# 
   276     0F19                     	;# 
   277     0F1A                     	;# 
   278     0F1B                     	;# 
   279     0F1C                     	;# 
   280     0F1D                     	;# 
   281     0F1E                     	;# 
   282     0F1F                     	;# 
   283     0F20                     	;# 
   284     0F21                     	;# 
   285     0F22                     	;# 
   286     0F23                     	;# 
   287     0FE4                     	;# 
   288     0FE5                     	;# 
   289     0FE6                     	;# 
   290     0FE7                     	;# 
   291     0FE8                     	;# 
   292     0FE9                     	;# 
   293     0FEA                     	;# 
   294     0FEB                     	;# 
   295     0FED                     	;# 
   296     0FEE                     	;# 
   297     0FEF                     	;# 
   298     0000                     	;# 
   299     0001                     	;# 
   300     0002                     	;# 
   301     0003                     	;# 
   302     0004                     	;# 
   303     0005                     	;# 
   304     0006                     	;# 
   305     0007                     	;# 
   306     0008                     	;# 
   307     0009                     	;# 
   308     000A                     	;# 
   309     000B                     	;# 
   310     000C                     	;# 
   311     0010                     	;# 
   312     0011                     	;# 
   313     0012                     	;# 
   314     0013                     	;# 
   315     0014                     	;# 
   316     0015                     	;# 
   317     0015                     	;# 
   318     0016                     	;# 
   319     0016                     	;# 
   320     0017                     	;# 
   321     0018                     	;# 
   322     0019                     	;# 
   323     0019                     	;# 
   324     001A                     	;# 
   325     001B                     	;# 
   326     001C                     	;# 
   327     001D                     	;# 
   328     001E                     	;# 
   329     001F                     	;# 
   330     008C                     	;# 
   331     0090                     	;# 
   332     0091                     	;# 
   333     0092                     	;# 
   334     0093                     	;# 
   335     0094                     	;# 
   336     0097                     	;# 
   337     009B                     	;# 
   338     009B                     	;# 
   339     009C                     	;# 
   340     009D                     	;# 
   341     009E                     	;# 
   342     009F                     	;# 
   343     010C                     	;# 
   344     0111                     	;# 
   345     0112                     	;# 
   346     0115                     	;# 
   347     0116                     	;# 
   348     0117                     	;# 
   349     0118                     	;# 
   350     0119                     	;# 
   351     018C                     	;# 
   352     0197                     	;# 
   353     0199                     	;# 
   354     0199                     	;# 
   355     0199                     	;# 
   356     019A                     	;# 
   357     019A                     	;# 
   358     019A                     	;# 
   359     019B                     	;# 
   360     019B                     	;# 
   361     019B                     	;# 
   362     019B                     	;# 
   363     019B                     	;# 
   364     019C                     	;# 
   365     019C                     	;# 
   366     019C                     	;# 
   367     019D                     	;# 
   368     019D                     	;# 
   369     019D                     	;# 
   370     019E                     	;# 
   371     019E                     	;# 
   372     019E                     	;# 
   373     019F                     	;# 
   374     019F                     	;# 
   375     019F                     	;# 
   376     019F                     	;# 
   377     019F                     	;# 
   378     020C                     	;# 
   379     0211                     	;# 
   380     0211                     	;# 
   381     0212                     	;# 
   382     0212                     	;# 
   383     0213                     	;# 
   384     0213                     	;# 
   385     0214                     	;# 
   386     0214                     	;# 
   387     0215                     	;# 
   388     0215                     	;# 
   389     0215                     	;# 
   390     0215                     	;# 
   391     0216                     	;# 
   392     0216                     	;# 
   393     0217                     	;# 
   394     0217                     	;# 
   395     028C                     	;# 
   396     0291                     	;# 
   397     0291                     	;# 
   398     0292                     	;# 
   399     0293                     	;# 
   400     0294                     	;# 
   401     0295                     	;# 
   402     0295                     	;# 
   403     0296                     	;# 
   404     0297                     	;# 
   405     0298                     	;# 
   406     030C                     	;# 
   407     038C                     	;# 
   408     0391                     	;# 
   409     0392                     	;# 
   410     0393                     	;# 
   411     039A                     	;# 
   412     039C                     	;# 
   413     039D                     	;# 
   414     039E                     	;# 
   415     039F                     	;# 
   416     0498                     	;# 
   417     0498                     	;# 
   418     0499                     	;# 
   419     049A                     	;# 
   420     049B                     	;# 
   421     049B                     	;# 
   422     049C                     	;# 
   423     049D                     	;# 
   424     049E                     	;# 
   425     049F                     	;# 
   426     0617                     	;# 
   427     0618                     	;# 
   428     0619                     	;# 
   429     0619                     	;# 
   430     061A                     	;# 
   431     061B                     	;# 
   432     061C                     	;# 
   433     061C                     	;# 
   434     0691                     	;# 
   435     0692                     	;# 
   436     0693                     	;# 
   437     0694                     	;# 
   438     0695                     	;# 
   439     0696                     	;# 
   440     0697                     	;# 
   441     0698                     	;# 
   442     0699                     	;# 
   443     0891                     	;# 
   444     0891                     	;# 
   445     0891                     	;# 
   446     0891                     	;# 
   447     0891                     	;# 
   448     0891                     	;# 
   449     0892                     	;# 
   450     0892                     	;# 
   451     0892                     	;# 
   452     0893                     	;# 
   453     0893                     	;# 
   454     0893                     	;# 
   455     0893                     	;# 
   456     0893                     	;# 
   457     0893                     	;# 
   458     0894                     	;# 
   459     0894                     	;# 
   460     0894                     	;# 
   461     0895                     	;# 
   462     0895                     	;# 
   463     0895                     	;# 
   464     0896                     	;# 
   465     0896                     	;# 
   466     0896                     	;# 
   467     089B                     	;# 
   468     0911                     	;# 
   469     0912                     	;# 
   470     0913                     	;# 
   471     0914                     	;# 
   472     0915                     	;# 
   473     0916                     	;# 
   474     0918                     	;# 
   475     0919                     	;# 
   476     091A                     	;# 
   477     091B                     	;# 
   478     091C                     	;# 
   479     091D                     	;# 
   480     091E                     	;# 
   481     091F                     	;# 
   482     0E0F                     	;# 
   483     0E10                     	;# 
   484     0E11                     	;# 
   485     0E12                     	;# 
   486     0E13                     	;# 
   487     0E14                     	;# 
   488     0E15                     	;# 
   489     0E18                     	;# 
   490     0E1A                     	;# 
   491     0E1B                     	;# 
   492     0E1C                     	;# 
   493     0E20                     	;# 
   494     0E21                     	;# 
   495     0E22                     	;# 
   496     0E24                     	;# 
   497     0E25                     	;# 
   498     0E28                     	;# 
   499     0E29                     	;# 
   500     0E2A                     	;# 
   501     0E2B                     	;# 
   502     0E90                     	;# 
   503     0E91                     	;# 
   504     0E92                     	;# 
   505     0E94                     	;# 
   506     0E95                     	;# 
   507     0F0F                     	;# 
   508     0F10                     	;# 
   509     0F11                     	;# 
   510     0F12                     	;# 
   511     0F13                     	;# 
   512     0F14                     	;# 
   513     0F15                     	;# 
   514     0F16                     	;# 
   515     0F17                     	;# 
   516     0F18                     	;# 
   517     0F19                     	;# 
   518     0F1A                     	;# 
   519     0F1B                     	;# 
   520     0F1C                     	;# 
   521     0F1D                     	;# 
   522     0F1E                     	;# 
   523     0F1F                     	;# 
   524     0F20                     	;# 
   525     0F21                     	;# 
   526     0F22                     	;# 
   527     0F23                     	;# 
   528     0FE4                     	;# 
   529     0FE5                     	;# 
   530     0FE6                     	;# 
   531     0FE7                     	;# 
   532     0FE8                     	;# 
   533     0FE9                     	;# 
   534     0FEA                     	;# 
   535     0FEB                     	;# 
   536     0FED                     	;# 
   537     0FEE                     	;# 
   538     0FEF                     	;# 
   539     0000                     	;# 
   540     0001                     	;# 
   541     0002                     	;# 
   542     0003                     	;# 
   543     0004                     	;# 
   544     0005                     	;# 
   545     0006                     	;# 
   546     0007                     	;# 
   547     0008                     	;# 
   548     0009                     	;# 
   549     000A                     	;# 
   550     000B                     	;# 
   551     000C                     	;# 
   552     0010                     	;# 
   553     0011                     	;# 
   554     0012                     	;# 
   555     0013                     	;# 
   556     0014                     	;# 
   557     0015                     	;# 
   558     0015                     	;# 
   559     0016                     	;# 
   560     0016                     	;# 
   561     0017                     	;# 
   562     0018                     	;# 
   563     0019                     	;# 
   564     0019                     	;# 
   565     001A                     	;# 
   566     001B                     	;# 
   567     001C                     	;# 
   568     001D                     	;# 
   569     001E                     	;# 
   570     001F                     	;# 
   571     008C                     	;# 
   572     0090                     	;# 
   573     0091                     	;# 
   574     0092                     	;# 
   575     0093                     	;# 
   576     0094                     	;# 
   577     0097                     	;# 
   578     009B                     	;# 
   579     009B                     	;# 
   580     009C                     	;# 
   581     009D                     	;# 
   582     009E                     	;# 
   583     009F                     	;# 
   584     010C                     	;# 
   585     0111                     	;# 
   586     0112                     	;# 
   587     0115                     	;# 
   588     0116                     	;# 
   589     0117                     	;# 
   590     0118                     	;# 
   591     0119                     	;# 
   592     018C                     	;# 
   593     0197                     	;# 
   594     0199                     	;# 
   595     0199                     	;# 
   596     0199                     	;# 
   597     019A                     	;# 
   598     019A                     	;# 
   599     019A                     	;# 
   600     019B                     	;# 
   601     019B                     	;# 
   602     019B                     	;# 
   603     019B                     	;# 
   604     019B                     	;# 
   605     019C                     	;# 
   606     019C                     	;# 
   607     019C                     	;# 
   608     019D                     	;# 
   609     019D                     	;# 
   610     019D                     	;# 
   611     019E                     	;# 
   612     019E                     	;# 
   613     019E                     	;# 
   614     019F                     	;# 
   615     019F                     	;# 
   616     019F                     	;# 
   617     019F                     	;# 
   618     019F                     	;# 
   619     020C                     	;# 
   620     0211                     	;# 
   621     0211                     	;# 
   622     0212                     	;# 
   623     0212                     	;# 
   624     0213                     	;# 
   625     0213                     	;# 
   626     0214                     	;# 
   627     0214                     	;# 
   628     0215                     	;# 
   629     0215                     	;# 
   630     0215                     	;# 
   631     0215                     	;# 
   632     0216                     	;# 
   633     0216                     	;# 
   634     0217                     	;# 
   635     0217                     	;# 
   636     028C                     	;# 
   637     0291                     	;# 
   638     0291                     	;# 
   639     0292                     	;# 
   640     0293                     	;# 
   641     0294                     	;# 
   642     0295                     	;# 
   643     0295                     	;# 
   644     0296                     	;# 
   645     0297                     	;# 
   646     0298                     	;# 
   647     030C                     	;# 
   648     038C                     	;# 
   649     0391                     	;# 
   650     0392                     	;# 
   651     0393                     	;# 
   652     039A                     	;# 
   653     039C                     	;# 
   654     039D                     	;# 
   655     039E                     	;# 
   656     039F                     	;# 
   657     0498                     	;# 
   658     0498                     	;# 
   659     0499                     	;# 
   660     049A                     	;# 
   661     049B                     	;# 
   662     049B                     	;# 
   663     049C                     	;# 
   664     049D                     	;# 
   665     049E                     	;# 
   666     049F                     	;# 
   667     0617                     	;# 
   668     0618                     	;# 
   669     0619                     	;# 
   670     0619                     	;# 
   671     061A                     	;# 
   672     061B                     	;# 
   673     061C                     	;# 
   674     061C                     	;# 
   675     0691                     	;# 
   676     0692                     	;# 
   677     0693                     	;# 
   678     0694                     	;# 
   679     0695                     	;# 
   680     0696                     	;# 
   681     0697                     	;# 
   682     0698                     	;# 
   683     0699                     	;# 
   684     0891                     	;# 
   685     0891                     	;# 
   686     0891                     	;# 
   687     0891                     	;# 
   688     0891                     	;# 
   689     0891                     	;# 
   690     0892                     	;# 
   691     0892                     	;# 
   692     0892                     	;# 
   693     0893                     	;# 
   694     0893                     	;# 
   695     0893                     	;# 
   696     0893                     	;# 
   697     0893                     	;# 
   698     0893                     	;# 
   699     0894                     	;# 
   700     0894                     	;# 
   701     0894                     	;# 
   702     0895                     	;# 
   703     0895                     	;# 
   704     0895                     	;# 
   705     0896                     	;# 
   706     0896                     	;# 
   707     0896                     	;# 
   708     089B                     	;# 
   709     0911                     	;# 
   710     0912                     	;# 
   711     0913                     	;# 
   712     0914                     	;# 
   713     0915                     	;# 
   714     0916                     	;# 
   715     0918                     	;# 
   716     0919                     	;# 
   717     091A                     	;# 
   718     091B                     	;# 
   719     091C                     	;# 
   720     091D                     	;# 
   721     091E                     	;# 
   722     091F                     	;# 
   723     0E0F                     	;# 
   724     0E10                     	;# 
   725     0E11                     	;# 
   726     0E12                     	;# 
   727     0E13                     	;# 
   728     0E14                     	;# 
   729     0E15                     	;# 
   730     0E18                     	;# 
   731     0E1A                     	;# 
   732     0E1B                     	;# 
   733     0E1C                     	;# 
   734     0E20                     	;# 
   735     0E21                     	;# 
   736     0E22                     	;# 
   737     0E24                     	;# 
   738     0E25                     	;# 
   739     0E28                     	;# 
   740     0E29                     	;# 
   741     0E2A                     	;# 
   742     0E2B                     	;# 
   743     0E90                     	;# 
   744     0E91                     	;# 
   745     0E92                     	;# 
   746     0E94                     	;# 
   747     0E95                     	;# 
   748     0F0F                     	;# 
   749     0F10                     	;# 
   750     0F11                     	;# 
   751     0F12                     	;# 
   752     0F13                     	;# 
   753     0F14                     	;# 
   754     0F15                     	;# 
   755     0F16                     	;# 
   756     0F17                     	;# 
   757     0F18                     	;# 
   758     0F19                     	;# 
   759     0F1A                     	;# 
   760     0F1B                     	;# 
   761     0F1C                     	;# 
   762     0F1D                     	;# 
   763     0F1E                     	;# 
   764     0F1F                     	;# 
   765     0F20                     	;# 
   766     0F21                     	;# 
   767     0F22                     	;# 
   768     0F23                     	;# 
   769     0FE4                     	;# 
   770     0FE5                     	;# 
   771     0FE6                     	;# 
   772     0FE7                     	;# 
   773     0FE8                     	;# 
   774     0FE9                     	;# 
   775     0FEA                     	;# 
   776     0FEB                     	;# 
   777     0FED                     	;# 
   778     0FEE                     	;# 
   779     0FEF                     	;# 
   780     001E                     _PR2	set	30
   781     001F                     _T2CON	set	31
   782     008B                     _SSP1IF	set	139
   783     005F                     _GIE	set	95
   784     005E                     _PEIE	set	94
   785     048B                     _SSP1IE	set	1163
   786     0464                     _TRISA4	set	1124
   787     0465                     _TRISA5	set	1125
   788     0461                     _TRISA1	set	1121
   789     0462                     _TRISA2	set	1122
   790     018C                     _ANSELA	set	396
   791     0216                     _SSP1CON2bits	set	534
   792     0215                     _SSP1CONbits	set	533
   793     0215                     _SSP1CON1bits	set	533
   794     0214                     _SSP1STATbits	set	532
   795     0217                     _SSP1CON3	set	535
   796     0216                     _SSP1CON2	set	534
   797     0215                     _SSP1CON1	set	533
   798     0211                     _SSP1BUF	set	529
   799     0214                     _SSP1STAT	set	532
   800     0212                     _SSP1ADD	set	530
   801     061A                     _PWM6DCL	set	1562
   802     061C                     _PWM6CON	set	1564
   803     0617                     _PWM5DCL	set	1559
   804     0619                     _PWM5CON	set	1561
   805     061B                     _PWM6DCH	set	1563
   806     0618                     _PWM5DCH	set	1560
   807     091F                     _OSCFRQ	set	2335
   808     0919                     _OSCCON1	set	2329
   809     0E20                     _SSP1CLKPPS	set	3616
   810     0E21                     _SSP1DATPPS	set	3617
   811     0E94                     _RA4PPS	set	3732
   812     0E95                     _RA5PPS	set	3733
   813     0E91                     _RA1PPS	set	3729
   814     0E92                     _RA2PPS	set	3730
   815                           
   816                           	psect	cinit
   817     004C                     start_initialization:	
   818                           ; #config settings
   819                           
   820     004C                     __initialization:
   821                           
   822                           ; Clear objects allocated to COMMON
   823     004C  01FD               	clrf	__pbssCOMMON& (0+127)
   824                           
   825                           ; Clear objects allocated to BANK0
   826     004D  0020               	movlb	0	; select bank0
   827     004E  01CE               	clrf	__pbssBANK0& (0+127)
   828     004F  01CF               	clrf	(__pbssBANK0+1)& (0+127)
   829     0050  01D0               	clrf	(__pbssBANK0+2)& (0+127)
   830     0051  01D1               	clrf	(__pbssBANK0+3)& (0+127)
   831     0052  01D2               	clrf	(__pbssBANK0+4)& (0+127)
   832     0053  01D3               	clrf	(__pbssBANK0+5)& (0+127)
   833     0054                     end_of_initialization:	
   834                           ;End of C runtime variable initialization code
   835                           
   836     0054                     __end_of__initialization:
   837     0054  107E               	bcf	int$flags,0	;clear compiler interrupt flag (level 1)
   838     0055  0020               	movlb	0
   839     0056  297D               	ljmp	_main	;jump to C main() function
   840                           
   841                           	psect	bssCOMMON
   842     007D                     __pbssCOMMON:
   843     007D                     _a:
   844     007D                     	ds	1
   845                           
   846                           	psect	bssBANK0
   847     004E                     __pbssBANK0:
   848     004E                     _receivedData:
   849     004E                     	ds	4
   850     0052                     _duty:
   851     0052                     	ds	2
   852                           
   853                           	psect	cstackCOMMON
   854     0070                     __pcstackCOMMON:
   855     0070                     ?_setup:
   856     0070                     ?_setupI2C:	
   857                           ; 1 bytes @ 0x0
   858                           
   859     0070                     ?_setupPWM:	
   860                           ; 1 bytes @ 0x0
   861                           
   862     0070                     ?_I2C_call_back:	
   863                           ; 1 bytes @ 0x0
   864                           
   865     0070                     ?__ISR:	
   866                           ; 1 bytes @ 0x0
   867                           
   868     0070                     ?___awdiv:	
   869                           ; 1 bytes @ 0x0
   870                           
   871     0070                     ___awdiv@divisor:	
   872                           ; 2 bytes @ 0x0
   873                           
   874                           
   875                           ; 2 bytes @ 0x0
   876     0070                     	ds	2
   877     0072                     ___awdiv@dividend:
   878                           
   879                           ; 2 bytes @ 0x2
   880     0072                     	ds	2
   881     0074                     ??___awdiv:
   882                           
   883                           ; 1 bytes @ 0x4
   884     0074                     	ds	1
   885     0075                     ___awdiv@counter:
   886                           
   887                           ; 1 bytes @ 0x5
   888     0075                     	ds	1
   889     0076                     ___awdiv@sign:
   890                           
   891                           ; 1 bytes @ 0x6
   892     0076                     	ds	1
   893     0077                     ___awdiv@quotient:
   894                           
   895                           ; 2 bytes @ 0x7
   896     0077                     	ds	2
   897     0079                     ?___wmul:
   898     0079                     ___wmul@multiplier:	
   899                           ; 2 bytes @ 0x9
   900                           
   901                           
   902                           ; 2 bytes @ 0x9
   903     0079                     	ds	2
   904     007B                     ___wmul@multiplicand:
   905                           
   906                           ; 2 bytes @ 0xB
   907     007B                     	ds	2
   908     007D                     ??___wmul:
   909                           
   910                           	psect	cstackBANK0
   911     0020                     __pcstackBANK0:	
   912                           ; 1 bytes @ 0xD
   913                           
   914     0020                     ___wmul@product:
   915                           
   916                           ; 2 bytes @ 0x0
   917     0020                     	ds	2
   918     0022                     ??_I2C_call_back:
   919                           
   920                           ; 1 bytes @ 0x2
   921     0022                     	ds	3
   922     0025                     I2C_call_back@a:
   923                           
   924                           ; 1 bytes @ 0x5
   925     0025                     	ds	1
   926     0026                     I2C_call_back@data:
   927                           
   928                           ; 1 bytes @ 0x6
   929     0026                     	ds	1
   930     0027                     ??__ISR:
   931                           
   932                           ; 1 bytes @ 0x7
   933     0027                     	ds	4
   934     002B                     ??_setup:
   935     002B                     ??_setupI2C:	
   936                           ; 1 bytes @ 0xB
   937                           
   938     002B                     ??_setupPWM:	
   939                           ; 1 bytes @ 0xB
   940                           
   941     002B                     ?___lmul:	
   942                           ; 1 bytes @ 0xB
   943                           
   944     002B                     setupI2C@SLAVE_ADDRESS:	
   945                           ; 4 bytes @ 0xB
   946                           
   947     002B                     ___lmul@multiplier:	
   948                           ; 1 bytes @ 0xB
   949                           
   950                           
   951                           ; 4 bytes @ 0xB
   952     002B                     	ds	4
   953     002F                     ___lmul@multiplicand:
   954                           
   955                           ; 4 bytes @ 0xF
   956     002F                     	ds	4
   957     0033                     ??___lmul:
   958     0033                     ___lmul@product:	
   959                           ; 1 bytes @ 0x13
   960                           
   961                           
   962                           ; 4 bytes @ 0x13
   963     0033                     	ds	4
   964     0037                     ?___lldiv:
   965     0037                     ___lldiv@divisor:	
   966                           ; 4 bytes @ 0x17
   967                           
   968                           
   969                           ; 4 bytes @ 0x17
   970     0037                     	ds	4
   971     003B                     ___lldiv@dividend:
   972                           
   973                           ; 4 bytes @ 0x1B
   974     003B                     	ds	4
   975     003F                     ??___lldiv:
   976                           
   977                           ; 1 bytes @ 0x1F
   978     003F                     	ds	1
   979     0040                     ___lldiv@quotient:
   980                           
   981                           ; 4 bytes @ 0x20
   982     0040                     	ds	4
   983     0044                     ___lldiv@counter:
   984                           
   985                           ; 1 bytes @ 0x24
   986     0044                     	ds	1
   987     0045                     ?_main:
   988     0045                     main@argc:	
   989                           ; 2 bytes @ 0x25
   990                           
   991                           
   992                           ; 2 bytes @ 0x25
   993     0045                     	ds	2
   994     0047                     main@argv:
   995                           
   996                           ; 2 bytes @ 0x27
   997     0047                     	ds	2
   998     0049                     ??_main:
   999                           
  1000                           ; 1 bytes @ 0x29
  1001     0049                     	ds	2
  1002     004B                     main@b:
  1003                           
  1004                           ; 2 bytes @ 0x2B
  1005     004B                     	ds	2
  1006     004D                     main@duty:
  1007                           
  1008                           ; 1 bytes @ 0x2D
  1009     004D                     	ds	1
  1010                           
  1011                           	psect	maintext
  1012     017D                     __pmaintext:	
  1013 ;;
  1014 ;;Main: autosize = 0, tempsize = 2, incstack = 0, save=0
  1015 ;;
  1016 ;; *************** function _main *****************
  1017 ;; Defined at:
  1018 ;;		line 25 in file "newmain.c"
  1019 ;; Parameters:    Size  Location     Type
  1020 ;;  argc            2   37[BANK0 ] int 
  1021 ;;  argv            2   39[BANK0 ] PTR PTR unsigned char 
  1022 ;; Auto vars:     Size  Location     Type
  1023 ;;  b               2   43[BANK0 ] unsigned int 
  1024 ;;  duty            1   45[BANK0 ] unsigned char 
  1025 ;;  data            1    0        unsigned char 
  1026 ;; Return value:  Size  Location     Type
  1027 ;;                  2   37[BANK0 ] int 
  1028 ;; Registers used:
  1029 ;;		wreg, status,2, status,0, pclath, cstack
  1030 ;; Tracked objects:
  1031 ;;		On entry : B1F/0
  1032 ;;		On exit  : 0/0
  1033 ;;		Unchanged: 0/0
  1034 ;; Data sizes:     COMMON   BANK0   BANK1   BANK2
  1035 ;;      Params:         0       4       0       0
  1036 ;;      Locals:         0       3       0       0
  1037 ;;      Temps:          0       2       0       0
  1038 ;;      Totals:         0       9       0       0
  1039 ;;Total ram usage:        9 bytes
  1040 ;; Hardware stack levels required when called: 4
  1041 ;; This function calls:
  1042 ;;		___lldiv
  1043 ;;		___lmul
  1044 ;;		_setup
  1045 ;;		_setupI2C
  1046 ;;		_setupPWM
  1047 ;; This function is called by:
  1048 ;;		Startup code after reset
  1049 ;; This function uses a non-reentrant model
  1050 ;;
  1051                           
  1052     017D                     _main:	
  1053                           ;psect for function _main
  1054                           
  1055     017D                     l1129:	
  1056                           ;incstack = 0
  1057                           ; Regs used in _main: [wreg+status,2+status,0+pclath+cstack]
  1058                           
  1059                           
  1060                           ;newmain.c: 26: setup();
  1061     017D  3181  21FA  3181   	fcall	_setup
  1062                           
  1063                           ;newmain.c: 27: setupI2C(0x03);
  1064     0180  3003               	movlw	3
  1065     0181  3182  223E  3181   	fcall	_setupI2C
  1066                           
  1067                           ;newmain.c: 28: setupPWM();
  1068     0184  3182  224E  3181   	fcall	_setupPWM
  1069     0187                     l1131:
  1070     0187                     l1133:
  1071                           
  1072                           ;newmain.c: 32: uint16_t b = ((uint32_t)data * 1023) / 127;
  1073     0187  3000               	movlw	0
  1074     0188  0020               	movlb	0	; select bank0
  1075     0189  00BA               	movwf	___lldiv@divisor+3
  1076     018A  3000               	movlw	0
  1077     018B  00B9               	movwf	___lldiv@divisor+2
  1078     018C  3000               	movlw	0
  1079     018D  00B8               	movwf	___lldiv@divisor+1
  1080     018E  307F               	movlw	127
  1081     018F  00B7               	movwf	___lldiv@divisor
  1082     0190  3000               	movlw	0
  1083     0191  00AE               	movwf	___lmul@multiplier+3
  1084     0192  3000               	movlw	0
  1085     0193  00AD               	movwf	___lmul@multiplier+2
  1086     0194  3000               	movlw	0
  1087     0195  00AC               	movwf	___lmul@multiplier+1
  1088     0196  3064               	movlw	100
  1089     0197  00AB               	movwf	___lmul@multiplier
  1090     0198  3000               	movlw	0
  1091     0199  00B2               	movwf	___lmul@multiplicand+3
  1092     019A  3000               	movlw	0
  1093     019B  00B1               	movwf	___lmul@multiplicand+2
  1094     019C  3003               	movlw	3
  1095     019D  00B0               	movwf	___lmul@multiplicand+1
  1096     019E  30FF               	movlw	255
  1097     019F  00AF               	movwf	___lmul@multiplicand
  1098     01A0  3181  21C6  3181   	fcall	___lmul
  1099     01A3  0020               	movlb	0	; select bank0
  1100     01A4  082E               	movf	?___lmul+3,w
  1101     01A5  00BE               	movwf	___lldiv@dividend+3
  1102     01A6  082D               	movf	?___lmul+2,w
  1103     01A7  00BD               	movwf	___lldiv@dividend+2
  1104     01A8  082C               	movf	?___lmul+1,w
  1105     01A9  00BC               	movwf	___lldiv@dividend+1
  1106     01AA  082B               	movf	?___lmul,w
  1107     01AB  00BB               	movwf	___lldiv@dividend
  1108     01AC  3181  2122  3181   	fcall	___lldiv
  1109     01AF  0020               	movlb	0	; select bank0
  1110     01B0  0838               	movf	?___lldiv+1,w
  1111     01B1  00CC               	movwf	main@b+1
  1112     01B2  0837               	movf	?___lldiv,w
  1113     01B3  00CB               	movwf	main@b
  1114     01B4                     l1135:
  1115                           
  1116                           ;newmain.c: 33: uint8_t duty = b >> 2;
  1117     01B4  084C               	movf	main@b+1,w
  1118     01B5  00CA               	movwf	??_main+1
  1119     01B6  084B               	movf	main@b,w
  1120     01B7  00C9               	movwf	??_main
  1121     01B8  36CA               	lsrf	??_main+1,f
  1122     01B9  0CC9               	rrf	??_main,f
  1123     01BA  36CA               	lsrf	??_main+1,f
  1124     01BB  0CC9               	rrf	??_main,f
  1125     01BC  0849               	movf	??_main,w
  1126     01BD  00CD               	movwf	main@duty
  1127     01BE                     l1137:
  1128                           
  1129                           ;newmain.c: 37: PWM5DCH=0x00;
  1130     01BE  002C               	movlb	12	; select bank12
  1131     01BF  0198               	clrf	24	;volatile
  1132     01C0                     l1139:
  1133                           
  1134                           ;newmain.c: 38: PWM6DCH=duty;
  1135     01C0  0020               	movlb	0	; select bank0
  1136     01C1  084D               	movf	main@duty,w
  1137     01C2  002C               	movlb	12	; select bank12
  1138     01C3  009B               	movwf	27	;volatile
  1139     01C4  2987               	goto	l1131
  1140     01C5  284B               	ljmp	start
  1141     01C6                     __end_of_main:
  1142                           
  1143                           	psect	text1
  1144     024E                     __ptext1:	
  1145 ;; *************** function _setupPWM *****************
  1146 ;; Defined at:
  1147 ;;		line 65 in file "newmain.c"
  1148 ;; Parameters:    Size  Location     Type
  1149 ;;		None
  1150 ;; Auto vars:     Size  Location     Type
  1151 ;;		None
  1152 ;; Return value:  Size  Location     Type
  1153 ;;                  1    wreg      void 
  1154 ;; Registers used:
  1155 ;;		wreg, status,2
  1156 ;; Tracked objects:
  1157 ;;		On entry : 0/0
  1158 ;;		On exit  : 0/0
  1159 ;;		Unchanged: 0/0
  1160 ;; Data sizes:     COMMON   BANK0   BANK1   BANK2
  1161 ;;      Params:         0       0       0       0
  1162 ;;      Locals:         0       0       0       0
  1163 ;;      Temps:          0       0       0       0
  1164 ;;      Totals:         0       0       0       0
  1165 ;;Total ram usage:        0 bytes
  1166 ;; Hardware stack levels used: 1
  1167 ;; Hardware stack levels required when called: 3
  1168 ;; This function calls:
  1169 ;;		Nothing
  1170 ;; This function is called by:
  1171 ;;		_main
  1172 ;; This function uses a non-reentrant model
  1173 ;;
  1174                           
  1175     024E                     _setupPWM:	
  1176                           ;psect for function _setupPWM
  1177                           
  1178     024E                     l1061:	
  1179                           ;incstack = 0
  1180                           ; Regs used in _setupPWM: [wreg+status,2]
  1181                           
  1182                           
  1183                           ;newmain.c: 69: T2CON=0x04;
  1184     024E  3004               	movlw	4
  1185     024F  0020               	movlb	0	; select bank0
  1186     0250  009F               	movwf	31	;volatile
  1187                           
  1188                           ;newmain.c: 70: PR2=0x65;
  1189     0251  3065               	movlw	101
  1190     0252  009E               	movwf	30	;volatile
  1191                           
  1192                           ;newmain.c: 71: PWM5CON=0x80;
  1193     0253  3080               	movlw	128
  1194     0254  002C               	movlb	12	; select bank12
  1195     0255  0099               	movwf	25	;volatile
  1196     0256                     l1063:
  1197                           
  1198                           ;newmain.c: 72: PWM5DCH=0x00;
  1199     0256  0198               	clrf	24	;volatile
  1200     0257                     l1065:
  1201                           
  1202                           ;newmain.c: 73: PWM5DCL=0x00;
  1203     0257  0197               	clrf	23	;volatile
  1204                           
  1205                           ;newmain.c: 75: PWM6CON=0x80;
  1206     0258  3080               	movlw	128
  1207     0259  009C               	movwf	28	;volatile
  1208     025A                     l1067:
  1209                           
  1210                           ;newmain.c: 76: PWM6DCH=0x00;
  1211     025A  019B               	clrf	27	;volatile
  1212     025B                     l1069:
  1213                           
  1214                           ;newmain.c: 77: PWM6DCL=0x00;
  1215     025B  019A               	clrf	26	;volatile
  1216     025C                     l66:
  1217     025C  0008               	return
  1218     025D                     __end_of_setupPWM:
  1219                           
  1220                           	psect	text2
  1221     023E                     __ptext2:	
  1222 ;; *************** function _setupI2C *****************
  1223 ;; Defined at:
  1224 ;;		line 12 in file "I2C.c"
  1225 ;; Parameters:    Size  Location     Type
  1226 ;;  SLAVE_ADDRES    1    wreg     unsigned char 
  1227 ;; Auto vars:     Size  Location     Type
  1228 ;;  SLAVE_ADDRES    1   11[BANK0 ] unsigned char 
  1229 ;; Return value:  Size  Location     Type
  1230 ;;                  1    wreg      void 
  1231 ;; Registers used:
  1232 ;;		wreg, status,2, status,0
  1233 ;; Tracked objects:
  1234 ;;		On entry : 0/0
  1235 ;;		On exit  : 0/0
  1236 ;;		Unchanged: 0/0
  1237 ;; Data sizes:     COMMON   BANK0   BANK1   BANK2
  1238 ;;      Params:         0       0       0       0
  1239 ;;      Locals:         0       1       0       0
  1240 ;;      Temps:          0       0       0       0
  1241 ;;      Totals:         0       1       0       0
  1242 ;;Total ram usage:        1 bytes
  1243 ;; Hardware stack levels used: 1
  1244 ;; Hardware stack levels required when called: 3
  1245 ;; This function calls:
  1246 ;;		Nothing
  1247 ;; This function is called by:
  1248 ;;		_main
  1249 ;; This function uses a non-reentrant model
  1250 ;;
  1251                           
  1252     023E                     _setupI2C:	
  1253                           ;psect for function _setupI2C
  1254                           
  1255                           
  1256                           ;incstack = 0
  1257                           ; Regs used in _setupI2C: [wreg+status,2+status,0]
  1258                           ;setupI2C@SLAVE_ADDRESS stored from wreg
  1259     023E  0020               	movlb	0	; select bank0
  1260     023F  00AB               	movwf	setupI2C@SLAVE_ADDRESS
  1261     0240                     l1043:
  1262                           
  1263                           ;I2C.c: 14: SSP1ADD=(SLAVE_ADDRESS<<1);
  1264     0240  352B               	lslf	setupI2C@SLAVE_ADDRESS,w
  1265     0241  0024               	movlb	4	; select bank4
  1266     0242  0092               	movwf	18	;volatile
  1267     0243                     l1045:
  1268                           
  1269                           ;I2C.c: 15: SSP1STAT=0x00;
  1270     0243  0194               	clrf	20	;volatile
  1271     0244                     l1047:
  1272                           
  1273                           ;I2C.c: 16: SSP1BUF=0x00;
  1274     0244  0191               	clrf	17	;volatile
  1275     0245                     l1049:
  1276                           
  1277                           ;I2C.c: 17: SSP1CON1=0x36;
  1278     0245  3036               	movlw	54
  1279     0246  0095               	movwf	21	;volatile
  1280     0247                     l1051:
  1281                           
  1282                           ;I2C.c: 18: SSP1CON2=0x00;
  1283     0247  0196               	clrf	22	;volatile
  1284     0248                     l1053:
  1285                           
  1286                           ;I2C.c: 19: SSP1CON3=0x00;
  1287     0248  0197               	clrf	23	;volatile
  1288     0249                     l1055:
  1289                           
  1290                           ;I2C.c: 21: SSP1IE=1;
  1291     0249  0021               	movlb	1	; select bank1
  1292     024A  1591               	bsf	17,3	;volatile
  1293     024B                     l1057:
  1294                           
  1295                           ;I2C.c: 22: PEIE=1;
  1296     024B  170B               	bsf	11,6	;volatile
  1297     024C                     l1059:
  1298                           
  1299                           ;I2C.c: 23: GIE=1;
  1300     024C  178B               	bsf	11,7	;volatile
  1301     024D                     l106:
  1302     024D  0008               	return
  1303     024E                     __end_of_setupI2C:
  1304                           
  1305                           	psect	text3
  1306     01FA                     __ptext3:	
  1307 ;; *************** function _setup *****************
  1308 ;; Defined at:
  1309 ;;		line 43 in file "newmain.c"
  1310 ;; Parameters:    Size  Location     Type
  1311 ;;		None
  1312 ;; Auto vars:     Size  Location     Type
  1313 ;;		None
  1314 ;; Return value:  Size  Location     Type
  1315 ;;                  1    wreg      void 
  1316 ;; Registers used:
  1317 ;;		wreg, status,2
  1318 ;; Tracked objects:
  1319 ;;		On entry : 0/0
  1320 ;;		On exit  : 0/0
  1321 ;;		Unchanged: 0/0
  1322 ;; Data sizes:     COMMON   BANK0   BANK1   BANK2
  1323 ;;      Params:         0       0       0       0
  1324 ;;      Locals:         0       0       0       0
  1325 ;;      Temps:          0       0       0       0
  1326 ;;      Totals:         0       0       0       0
  1327 ;;Total ram usage:        0 bytes
  1328 ;; Hardware stack levels used: 1
  1329 ;; Hardware stack levels required when called: 3
  1330 ;; This function calls:
  1331 ;;		Nothing
  1332 ;; This function is called by:
  1333 ;;		_main
  1334 ;; This function uses a non-reentrant model
  1335 ;;
  1336                           
  1337     01FA                     _setup:	
  1338                           ;psect for function _setup
  1339                           
  1340     01FA                     l1027:	
  1341                           ;incstack = 0
  1342                           ; Regs used in _setup: [wreg+status,2]
  1343                           
  1344                           
  1345                           ;newmain.c: 45: OSCCON1=0x60;
  1346     01FA  3060               	movlw	96
  1347     01FB  0032               	movlb	18	; select bank18
  1348     01FC  0099               	movwf	25	;volatile
  1349                           
  1350                           ;newmain.c: 46: OSCFRQ=0x04;
  1351     01FD  3004               	movlw	4
  1352     01FE  009F               	movwf	31	;volatile
  1353     01FF                     l1029:
  1354                           
  1355                           ;newmain.c: 48: TRISA2=0x01;
  1356     01FF  0021               	movlb	1	; select bank1
  1357     0200  150C               	bsf	12,2	;volatile
  1358                           
  1359                           ;newmain.c: 49: RA2PPS=0x19;
  1360     0201  3019               	movlw	25
  1361     0202  003D               	movlb	29	; select bank29
  1362     0203  0092               	movwf	18	;volatile
  1363                           
  1364                           ;newmain.c: 50: SSP1DATPPS=0x02;
  1365     0204  3002               	movlw	2
  1366     0205  003C               	movlb	28	; select bank28
  1367     0206  00A1               	movwf	33	;volatile
  1368     0207                     l1031:
  1369                           
  1370                           ;newmain.c: 52: TRISA1=0x01;
  1371     0207  0021               	movlb	1	; select bank1
  1372     0208  148C               	bsf	12,1	;volatile
  1373                           
  1374                           ;newmain.c: 53: RA1PPS=0x18;
  1375     0209  3018               	movlw	24
  1376     020A  003D               	movlb	29	; select bank29
  1377     020B  0091               	movwf	17	;volatile
  1378                           
  1379                           ;newmain.c: 54: SSP1CLKPPS=0x01;
  1380     020C  3001               	movlw	1
  1381     020D  003C               	movlb	28	; select bank28
  1382     020E  00A0               	movwf	32	;volatile
  1383     020F                     l1033:
  1384                           
  1385                           ;newmain.c: 57: ANSELA=0x00;
  1386     020F  0023               	movlb	3	; select bank3
  1387     0210  018C               	clrf	12	;volatile
  1388     0211                     l1035:
  1389                           
  1390                           ;newmain.c: 58: TRISA5=0x00;
  1391     0211  0021               	movlb	1	; select bank1
  1392     0212  128C               	bcf	12,5	;volatile
  1393     0213                     l1037:
  1394                           
  1395                           ;newmain.c: 59: RA5PPS=0x02;
  1396     0213  3002               	movlw	2
  1397     0214  003D               	movlb	29	; select bank29
  1398     0215  0095               	movwf	21	;volatile
  1399     0216                     l1039:
  1400                           
  1401                           ;newmain.c: 61: TRISA4=0x00;
  1402     0216  0021               	movlb	1	; select bank1
  1403     0217  120C               	bcf	12,4	;volatile
  1404     0218                     l1041:
  1405                           
  1406                           ;newmain.c: 62: RA4PPS=0x03;
  1407     0218  3003               	movlw	3
  1408     0219  003D               	movlb	29	; select bank29
  1409     021A  0094               	movwf	20	;volatile
  1410     021B                     l63:
  1411     021B  0008               	return
  1412     021C                     __end_of_setup:
  1413                           
  1414                           	psect	text4
  1415     01C6                     __ptext4:	
  1416 ;; *************** function ___lmul *****************
  1417 ;; Defined at:
  1418 ;;		line 15 in file "/opt/microchip/xc8/v2.41/pic/sources/c90/common/Umul32.c"
  1419 ;; Parameters:    Size  Location     Type
  1420 ;;  multiplier      4   11[BANK0 ] unsigned long 
  1421 ;;  multiplicand    4   15[BANK0 ] unsigned long 
  1422 ;; Auto vars:     Size  Location     Type
  1423 ;;  product         4   19[BANK0 ] unsigned long 
  1424 ;; Return value:  Size  Location     Type
  1425 ;;                  4   11[BANK0 ] unsigned long 
  1426 ;; Registers used:
  1427 ;;		wreg, status,2, status,0
  1428 ;; Tracked objects:
  1429 ;;		On entry : 0/0
  1430 ;;		On exit  : 0/0
  1431 ;;		Unchanged: 0/0
  1432 ;; Data sizes:     COMMON   BANK0   BANK1   BANK2
  1433 ;;      Params:         0       8       0       0
  1434 ;;      Locals:         0       4       0       0
  1435 ;;      Temps:          0       0       0       0
  1436 ;;      Totals:         0      12       0       0
  1437 ;;Total ram usage:       12 bytes
  1438 ;; Hardware stack levels used: 1
  1439 ;; Hardware stack levels required when called: 3
  1440 ;; This function calls:
  1441 ;;		Nothing
  1442 ;; This function is called by:
  1443 ;;		_main
  1444 ;; This function uses a non-reentrant model
  1445 ;;
  1446                           
  1447     01C6                     ___lmul:	
  1448                           ;psect for function ___lmul
  1449                           
  1450     01C6                     l1091:	
  1451                           ;incstack = 0
  1452                           ; Regs used in ___lmul: [wreg+status,2+status,0]
  1453                           
  1454     01C6  3000               	movlw	0
  1455     01C7  0020               	movlb	0	; select bank0
  1456     01C8  00B6               	movwf	___lmul@product+3
  1457     01C9  3000               	movlw	0
  1458     01CA  00B5               	movwf	___lmul@product+2
  1459     01CB  3000               	movlw	0
  1460     01CC  00B4               	movwf	___lmul@product+1
  1461     01CD  3000               	movlw	0
  1462     01CE  00B3               	movwf	___lmul@product
  1463     01CF                     l1093:
  1464     01CF  1C2B               	btfss	___lmul@multiplier,0
  1465     01D0  29D2               	goto	u541
  1466     01D1  29D3               	goto	u540
  1467     01D2                     u541:
  1468     01D2  29DB               	goto	l1097
  1469     01D3                     u540:
  1470     01D3                     l1095:
  1471     01D3  082F               	movf	___lmul@multiplicand,w
  1472     01D4  07B3               	addwf	___lmul@product,f
  1473     01D5  0830               	movf	___lmul@multiplicand+1,w
  1474     01D6  3DB4               	addwfc	___lmul@product+1,f
  1475     01D7  0831               	movf	___lmul@multiplicand+2,w
  1476     01D8  3DB5               	addwfc	___lmul@product+2,f
  1477     01D9  0832               	movf	___lmul@multiplicand+3,w
  1478     01DA  3DB6               	addwfc	___lmul@product+3,f
  1479     01DB                     l1097:
  1480     01DB  3001               	movlw	1
  1481     01DC                     u555:
  1482     01DC  35AF               	lslf	___lmul@multiplicand,f
  1483     01DD  0DB0               	rlf	___lmul@multiplicand+1,f
  1484     01DE  0DB1               	rlf	___lmul@multiplicand+2,f
  1485     01DF  0DB2               	rlf	___lmul@multiplicand+3,f
  1486     01E0  0B89               	decfsz	9,f
  1487     01E1  29DC               	goto	u555
  1488     01E2                     l1099:
  1489     01E2  3001               	movlw	1
  1490     01E3                     u565:
  1491     01E3  36AE               	lsrf	___lmul@multiplier+3,f
  1492     01E4  0CAD               	rrf	___lmul@multiplier+2,f
  1493     01E5  0CAC               	rrf	___lmul@multiplier+1,f
  1494     01E6  0CAB               	rrf	___lmul@multiplier,f
  1495     01E7  0B89               	decfsz	9,f
  1496     01E8  29E3               	goto	u565
  1497     01E9  082E               	movf	___lmul@multiplier+3,w
  1498     01EA  042D               	iorwf	___lmul@multiplier+2,w
  1499     01EB  042C               	iorwf	___lmul@multiplier+1,w
  1500     01EC  042B               	iorwf	___lmul@multiplier,w
  1501     01ED  1D03               	skipz
  1502     01EE  29F0               	goto	u571
  1503     01EF  29F1               	goto	u570
  1504     01F0                     u571:
  1505     01F0  29CF               	goto	l1093
  1506     01F1                     u570:
  1507     01F1                     l1101:
  1508     01F1  0836               	movf	___lmul@product+3,w
  1509     01F2  00AE               	movwf	?___lmul+3
  1510     01F3  0835               	movf	___lmul@product+2,w
  1511     01F4  00AD               	movwf	?___lmul+2
  1512     01F5  0834               	movf	___lmul@product+1,w
  1513     01F6  00AC               	movwf	?___lmul+1
  1514     01F7  0833               	movf	___lmul@product,w
  1515     01F8  00AB               	movwf	?___lmul
  1516     01F9                     l285:
  1517     01F9  0008               	return
  1518     01FA                     __end_of___lmul:
  1519                           
  1520                           	psect	text5
  1521     0122                     __ptext5:	
  1522 ;; *************** function ___lldiv *****************
  1523 ;; Defined at:
  1524 ;;		line 5 in file "/opt/microchip/xc8/v2.41/pic/sources/c90/common/__lldiv.c"
  1525 ;; Parameters:    Size  Location     Type
  1526 ;;  divisor         4   23[BANK0 ] unsigned long 
  1527 ;;  dividend        4   27[BANK0 ] unsigned long 
  1528 ;; Auto vars:     Size  Location     Type
  1529 ;;  quotient        4   32[BANK0 ] unsigned long 
  1530 ;;  counter         1   36[BANK0 ] unsigned char 
  1531 ;; Return value:  Size  Location     Type
  1532 ;;                  4   23[BANK0 ] unsigned long 
  1533 ;; Registers used:
  1534 ;;		wreg, status,2, status,0
  1535 ;; Tracked objects:
  1536 ;;		On entry : 0/0
  1537 ;;		On exit  : 0/0
  1538 ;;		Unchanged: 0/0
  1539 ;; Data sizes:     COMMON   BANK0   BANK1   BANK2
  1540 ;;      Params:         0       8       0       0
  1541 ;;      Locals:         0       5       0       0
  1542 ;;      Temps:          0       1       0       0
  1543 ;;      Totals:         0      14       0       0
  1544 ;;Total ram usage:       14 bytes
  1545 ;; Hardware stack levels used: 1
  1546 ;; Hardware stack levels required when called: 3
  1547 ;; This function calls:
  1548 ;;		Nothing
  1549 ;; This function is called by:
  1550 ;;		_main
  1551 ;; This function uses a non-reentrant model
  1552 ;;
  1553                           
  1554     0122                     ___lldiv:	
  1555                           ;psect for function ___lldiv
  1556                           
  1557     0122                     l1105:	
  1558                           ;incstack = 0
  1559                           ; Regs used in ___lldiv: [wreg+status,2+status,0]
  1560                           
  1561     0122  3000               	movlw	0
  1562     0123  0020               	movlb	0	; select bank0
  1563     0124  00C3               	movwf	___lldiv@quotient+3
  1564     0125  3000               	movlw	0
  1565     0126  00C2               	movwf	___lldiv@quotient+2
  1566     0127  3000               	movlw	0
  1567     0128  00C1               	movwf	___lldiv@quotient+1
  1568     0129  3000               	movlw	0
  1569     012A  00C0               	movwf	___lldiv@quotient
  1570     012B  083A               	movf	___lldiv@divisor+3,w
  1571     012C  0439               	iorwf	___lldiv@divisor+2,w
  1572     012D  0438               	iorwf	___lldiv@divisor+1,w
  1573     012E  0437               	iorwf	___lldiv@divisor,w
  1574     012F  1903               	skipnz
  1575     0130  2932               	goto	u581
  1576     0131  2933               	goto	u580
  1577     0132                     u581:
  1578     0132  2974               	goto	l1125
  1579     0133                     u580:
  1580     0133                     l1107:
  1581     0133  01C4               	clrf	___lldiv@counter
  1582     0134  0AC4               	incf	___lldiv@counter,f
  1583     0135  2941               	goto	l1111
  1584     0136                     l1109:
  1585     0136  3001               	movlw	1
  1586     0137                     u595:
  1587     0137  35B7               	lslf	___lldiv@divisor,f
  1588     0138  0DB8               	rlf	___lldiv@divisor+1,f
  1589     0139  0DB9               	rlf	___lldiv@divisor+2,f
  1590     013A  0DBA               	rlf	___lldiv@divisor+3,f
  1591     013B  0B89               	decfsz	9,f
  1592     013C  2937               	goto	u595
  1593     013D  3001               	movlw	1
  1594     013E  00BF               	movwf	??___lldiv
  1595     013F  083F               	movf	??___lldiv,w
  1596     0140  07C4               	addwf	___lldiv@counter,f
  1597     0141                     l1111:
  1598     0141  1FBA               	btfss	___lldiv@divisor+3,7
  1599     0142  2944               	goto	u601
  1600     0143  2945               	goto	u600
  1601     0144                     u601:
  1602     0144  2936               	goto	l1109
  1603     0145                     u600:
  1604     0145                     l1113:
  1605     0145  3001               	movlw	1
  1606     0146                     u615:
  1607     0146  35C0               	lslf	___lldiv@quotient,f
  1608     0147  0DC1               	rlf	___lldiv@quotient+1,f
  1609     0148  0DC2               	rlf	___lldiv@quotient+2,f
  1610     0149  0DC3               	rlf	___lldiv@quotient+3,f
  1611     014A  0B89               	decfsz	9,f
  1612     014B  2946               	goto	u615
  1613     014C                     l1115:
  1614     014C  083A               	movf	___lldiv@divisor+3,w
  1615     014D  023E               	subwf	___lldiv@dividend+3,w
  1616     014E  1D03               	skipz
  1617     014F  295A               	goto	u625
  1618     0150  0839               	movf	___lldiv@divisor+2,w
  1619     0151  023D               	subwf	___lldiv@dividend+2,w
  1620     0152  1D03               	skipz
  1621     0153  295A               	goto	u625
  1622     0154  0838               	movf	___lldiv@divisor+1,w
  1623     0155  023C               	subwf	___lldiv@dividend+1,w
  1624     0156  1D03               	skipz
  1625     0157  295A               	goto	u625
  1626     0158  0837               	movf	___lldiv@divisor,w
  1627     0159  023B               	subwf	___lldiv@dividend,w
  1628     015A                     u625:
  1629     015A  1C03               	skipc
  1630     015B  295D               	goto	u621
  1631     015C  295E               	goto	u620
  1632     015D                     u621:
  1633     015D  2967               	goto	l1121
  1634     015E                     u620:
  1635     015E                     l1117:
  1636     015E  0837               	movf	___lldiv@divisor,w
  1637     015F  02BB               	subwf	___lldiv@dividend,f
  1638     0160  0838               	movf	___lldiv@divisor+1,w
  1639     0161  3BBC               	subwfb	___lldiv@dividend+1,f
  1640     0162  0839               	movf	___lldiv@divisor+2,w
  1641     0163  3BBD               	subwfb	___lldiv@dividend+2,f
  1642     0164  083A               	movf	___lldiv@divisor+3,w
  1643     0165  3BBE               	subwfb	___lldiv@dividend+3,f
  1644     0166                     l1119:
  1645     0166  1440               	bsf	___lldiv@quotient,0
  1646     0167                     l1121:
  1647     0167  3001               	movlw	1
  1648     0168                     u635:
  1649     0168  36BA               	lsrf	___lldiv@divisor+3,f
  1650     0169  0CB9               	rrf	___lldiv@divisor+2,f
  1651     016A  0CB8               	rrf	___lldiv@divisor+1,f
  1652     016B  0CB7               	rrf	___lldiv@divisor,f
  1653     016C  0B89               	decfsz	9,f
  1654     016D  2968               	goto	u635
  1655     016E                     l1123:
  1656     016E  3001               	movlw	1
  1657     016F  02C4               	subwf	___lldiv@counter,f
  1658     0170  1D03               	btfss	3,2
  1659     0171  2973               	goto	u641
  1660     0172  2974               	goto	u640
  1661     0173                     u641:
  1662     0173  2945               	goto	l1113
  1663     0174                     u640:
  1664     0174                     l1125:
  1665     0174  0843               	movf	___lldiv@quotient+3,w
  1666     0175  00BA               	movwf	?___lldiv+3
  1667     0176  0842               	movf	___lldiv@quotient+2,w
  1668     0177  00B9               	movwf	?___lldiv+2
  1669     0178  0841               	movf	___lldiv@quotient+1,w
  1670     0179  00B8               	movwf	?___lldiv+1
  1671     017A  0840               	movf	___lldiv@quotient,w
  1672     017B  00B7               	movwf	?___lldiv
  1673     017C                     l307:
  1674     017C  0008               	return
  1675     017D                     __end_of___lldiv:
  1676                           
  1677                           	psect	intentry
  1678     0004                     __pintentry:	
  1679 ;; *************** function __ISR *****************
  1680 ;; Defined at:
  1681 ;;		line 26 in file "I2C.c"
  1682 ;; Parameters:    Size  Location     Type
  1683 ;;		None
  1684 ;; Auto vars:     Size  Location     Type
  1685 ;;		None
  1686 ;; Return value:  Size  Location     Type
  1687 ;;                  1    wreg      void 
  1688 ;; Registers used:
  1689 ;;		wreg, status,2, status,0, pclath, cstack
  1690 ;; Tracked objects:
  1691 ;;		On entry : 0/0
  1692 ;;		On exit  : 0/0
  1693 ;;		Unchanged: 0/0
  1694 ;; Data sizes:     COMMON   BANK0   BANK1   BANK2
  1695 ;;      Params:         0       0       0       0
  1696 ;;      Locals:         0       0       0       0
  1697 ;;      Temps:          0       4       0       0
  1698 ;;      Totals:         0       4       0       0
  1699 ;;Total ram usage:        4 bytes
  1700 ;; Hardware stack levels used: 1
  1701 ;; Hardware stack levels required when called: 2
  1702 ;; This function calls:
  1703 ;;		_I2C_call_back
  1704 ;; This function is called by:
  1705 ;;		Interrupt level 1
  1706 ;; This function uses a non-reentrant model
  1707 ;;
  1708                           
  1709     0004                     __ISR:
  1710                           
  1711                           ;incstack = 0
  1712     0004  147E               	bsf	int$flags,0	;set compiler interrupt flag (level 1)
  1713                           
  1714                           ; Regs used in __ISR: [wreg+status,2+status,0+pclath+cstack]
  1715     0005  3180               	pagesel	$
  1716     0006                     i1l1141:
  1717                           
  1718                           ;I2C.c: 27: if(SSP1IF){
  1719     0006  0020               	movlb	0	; select bank0
  1720     0007  1D91               	btfss	17,3	;volatile
  1721     0008  280A               	goto	u65_21
  1722     0009  280B               	goto	u65_20
  1723     000A                     u65_21:
  1724     000A  2849               	goto	i1l119
  1725     000B                     u65_20:
  1726     000B                     i1l1143:
  1727                           
  1728                           ;I2C.c: 28: if(!SSP1STATbits.D_nA){
  1729     000B  0024               	movlb	4	; select bank4
  1730     000C  1A94               	btfsc	20,5	;volatile
  1731     000D  280F               	goto	u66_21
  1732     000E  2810               	goto	u66_20
  1733     000F                     u66_21:
  1734     000F  282A               	goto	i1l112
  1735     0010                     u66_20:
  1736     0010                     i1l1145:
  1737                           
  1738                           ;I2C.c: 29: receivedData=SSP1BUF;
  1739     0010  0811               	movf	17,w	;volatile
  1740     0011  0020               	movlb	0	; select bank0
  1741     0012  00A7               	movwf	??__ISR
  1742     0013  01A8               	clrf	??__ISR+1
  1743     0014  01A9               	clrf	??__ISR+2
  1744     0015  01AA               	clrf	??__ISR+3
  1745     0016  082A               	movf	??__ISR+3,w
  1746     0017  00D1               	movwf	_receivedData+3
  1747     0018  0829               	movf	??__ISR+2,w
  1748     0019  00D0               	movwf	_receivedData+2
  1749     001A  0828               	movf	??__ISR+1,w
  1750     001B  00CF               	movwf	_receivedData+1
  1751     001C  0827               	movf	??__ISR,w
  1752     001D  00CE               	movwf	_receivedData
  1753     001E                     i1l1147:
  1754                           
  1755                           ;I2C.c: 30: if(SSP1CON1bits.SSPOV)SSP1CON1bits.SSPOV=0x00;
  1756     001E  0024               	movlb	4	; select bank4
  1757     001F  1F15               	btfss	21,6	;volatile
  1758     0020  2822               	goto	u67_21
  1759     0021  2823               	goto	u67_20
  1760     0022                     u67_21:
  1761     0022  2824               	goto	i1l113
  1762     0023                     u67_20:
  1763     0023                     i1l1149:
  1764     0023  1315               	bcf	21,6	;volatile
  1765     0024                     i1l113:
  1766                           
  1767                           ;I2C.c: 31: if(SSP1CON1bits.CKP)SSP1CONbits.CKP=0x01;
  1768     0024  1E15               	btfss	21,4	;volatile
  1769     0025  2827               	goto	u68_21
  1770     0026  2828               	goto	u68_20
  1771     0027                     u68_21:
  1772     0027  2846               	goto	i1l115
  1773     0028                     u68_20:
  1774     0028                     i1l1151:
  1775     0028  1615               	bsf	21,4	;volatile
  1776     0029  2846               	goto	i1l115
  1777     002A                     i1l112:
  1778                           
  1779                           ;I2C.c: 33: else{;I2C.c: 34: if(!SSP1STATbits.R_nW){
  1780     002A  1914               	btfsc	20,2	;volatile
  1781     002B  282D               	goto	u69_21
  1782     002C  282E               	goto	u69_20
  1783     002D                     u69_21:
  1784     002D  2846               	goto	i1l115
  1785     002E                     u69_20:
  1786     002E                     i1l1153:
  1787                           
  1788                           ;I2C.c: 35: receivedData=SSP1BUF;
  1789     002E  0811               	movf	17,w	;volatile
  1790     002F  0020               	movlb	0	; select bank0
  1791     0030  00A7               	movwf	??__ISR
  1792     0031  01A8               	clrf	??__ISR+1
  1793     0032  01A9               	clrf	??__ISR+2
  1794     0033  01AA               	clrf	??__ISR+3
  1795     0034  082A               	movf	??__ISR+3,w
  1796     0035  00D1               	movwf	_receivedData+3
  1797     0036  0829               	movf	??__ISR+2,w
  1798     0037  00D0               	movwf	_receivedData+2
  1799     0038  0828               	movf	??__ISR+1,w
  1800     0039  00CF               	movwf	_receivedData+1
  1801     003A  0827               	movf	??__ISR,w
  1802     003B  00CE               	movwf	_receivedData
  1803     003C                     i1l1155:
  1804                           
  1805                           ;I2C.c: 36: I2C_call_back(receivedData);
  1806     003C  084E               	movf	_receivedData,w
  1807     003D  3180  2057  3180   	fcall	_I2C_call_back
  1808     0040                     i1l1157:
  1809                           
  1810                           ;I2C.c: 37: if(SSP1CON2bits.SEN)SSP1CON1bits.CKP=1;
  1811     0040  0024               	movlb	4	; select bank4
  1812     0041  1C16               	btfss	22,0	;volatile
  1813     0042  2844               	goto	u70_21
  1814     0043  2845               	goto	u70_20
  1815     0044                     u70_21:
  1816     0044  2846               	goto	i1l115
  1817     0045                     u70_20:
  1818     0045                     i1l1159:
  1819     0045  1615               	bsf	21,4	;volatile
  1820     0046                     i1l115:
  1821                           
  1822                           ;I2C.c: 40: };I2C.c: 41: };I2C.c: 42: SSP1CON2bits.ACKDT=0x00;
  1823     0046  1296               	bcf	22,5	;volatile
  1824                           
  1825                           ;I2C.c: 43: SSP1IF=0;
  1826     0047  0020               	movlb	0	; select bank0
  1827     0048  1191               	bcf	17,3	;volatile
  1828     0049                     i1l119:
  1829     0049  107E               	bcf	int$flags,0	;clear compiler interrupt flag (level 1)
  1830     004A  0009               	retfie
  1831     004B                     __end_of__ISR:
  1832                           
  1833                           	psect	text7
  1834     0057                     __ptext7:	
  1835 ;; *************** function _I2C_call_back *****************
  1836 ;; Defined at:
  1837 ;;		line 83 in file "newmain.c"
  1838 ;; Parameters:    Size  Location     Type
  1839 ;;  data            1    wreg     unsigned char 
  1840 ;; Auto vars:     Size  Location     Type
  1841 ;;  data            1    6[BANK0 ] unsigned char 
  1842 ;;  b               2    0        unsigned int 
  1843 ;;  b               2    0        unsigned int 
  1844 ;;  a               1    5[BANK0 ] char 
  1845 ;; Return value:  Size  Location     Type
  1846 ;;                  1    wreg      void 
  1847 ;; Registers used:
  1848 ;;		wreg, status,2, status,0, pclath, cstack
  1849 ;; Tracked objects:
  1850 ;;		On entry : 0/0
  1851 ;;		On exit  : 0/0
  1852 ;;		Unchanged: 0/0
  1853 ;; Data sizes:     COMMON   BANK0   BANK1   BANK2
  1854 ;;      Params:         0       0       0       0
  1855 ;;      Locals:         0       2       0       0
  1856 ;;      Temps:          0       3       0       0
  1857 ;;      Totals:         0       5       0       0
  1858 ;;Total ram usage:        5 bytes
  1859 ;; Hardware stack levels used: 1
  1860 ;; Hardware stack levels required when called: 1
  1861 ;; This function calls:
  1862 ;;		___awdiv
  1863 ;;		___wmul
  1864 ;; This function is called by:
  1865 ;;		__ISR
  1866 ;; This function uses a non-reentrant model
  1867 ;;
  1868                           
  1869     0057                     _I2C_call_back:	
  1870                           ;psect for function _I2C_call_back
  1871                           
  1872                           
  1873                           ;incstack = 0
  1874                           ; Regs used in _I2C_call_back: [wreg+status,2+status,0+pclath+cstack]
  1875                           ;I2C_call_back@data stored from wreg
  1876     0057  0020               	movlb	0	; select bank0
  1877     0058  00A6               	movwf	I2C_call_back@data
  1878     0059                     i1l1071:
  1879                           
  1880                           ;newmain.c: 85: int8_t a=((data)>>7)&0b1;
  1881     0059  0826               	movf	I2C_call_back@data,w
  1882     005A  00A2               	movwf	??_I2C_call_back
  1883     005B  3007               	movlw	7
  1884     005C                     u50_25:
  1885     005C  36A2               	lsrf	??_I2C_call_back,f
  1886     005D  0B89               	decfsz	9,f
  1887     005E  285C               	goto	u50_25
  1888     005F  0822               	movf	??_I2C_call_back,w
  1889     0060  3901               	andlw	1
  1890     0061  00A5               	movwf	I2C_call_back@a
  1891                           
  1892                           ;newmain.c: 86: if(a){
  1893     0062  0825               	movf	I2C_call_back@a,w
  1894     0063  1903               	btfsc	3,2
  1895     0064  2866               	goto	u51_21
  1896     0065  2867               	goto	u51_20
  1897     0066                     u51_21:
  1898     0066  2895               	goto	i1l1083
  1899     0067                     u51_20:
  1900     0067                     i1l1073:
  1901                           
  1902                           ;newmain.c: 87: data=(~data)+0b1;
  1903     0067  09A6               	comf	I2C_call_back@data,f
  1904     0068  0AA6               	incf	I2C_call_back@data,f
  1905     0069                     i1l1075:
  1906     0069  307F               	movlw	127
  1907     006A  00F0               	movwf	___awdiv@divisor
  1908     006B  3000               	movlw	0
  1909     006C  00F1               	movwf	___awdiv@divisor+1
  1910     006D  0826               	movf	I2C_call_back@data,w
  1911     006E  00A2               	movwf	??_I2C_call_back
  1912     006F  01A3               	clrf	??_I2C_call_back+1
  1913     0070  0822               	movf	??_I2C_call_back,w
  1914     0071  00F2               	movwf	___awdiv@dividend
  1915     0072  0823               	movf	??_I2C_call_back+1,w
  1916     0073  00F3               	movwf	___awdiv@dividend+1
  1917     0074  3180  20C3  3180   	fcall	___awdiv
  1918     0077  0871               	movf	?___awdiv+1,w
  1919     0078  00FA               	movwf	___wmul@multiplier+1
  1920     0079  0870               	movf	?___awdiv,w
  1921     007A  00F9               	movwf	___wmul@multiplier
  1922     007B  30FF               	movlw	255
  1923     007C  00FB               	movwf	___wmul@multiplicand
  1924     007D  3003               	movlw	3
  1925     007E  00FC               	movwf	___wmul@multiplicand+1
  1926     007F  3182  221C  3180   	fcall	___wmul
  1927     0082                     i1l1077:
  1928                           
  1929                           ;newmain.c: 89: duty=data>>2;
  1930     0082  0020               	movlb	0	; select bank0
  1931     0083  0826               	movf	I2C_call_back@data,w
  1932     0084  00A2               	movwf	??_I2C_call_back
  1933     0085  3002               	movlw	2
  1934     0086                     u52_25:
  1935     0086  36A2               	lsrf	??_I2C_call_back,f
  1936     0087  0B89               	decfsz	9,f
  1937     0088  2886               	goto	u52_25
  1938     0089  0822               	movf	??_I2C_call_back,w
  1939     008A  00A3               	movwf	??_I2C_call_back+1
  1940     008B  01A4               	clrf	??_I2C_call_back+2
  1941     008C  0823               	movf	??_I2C_call_back+1,w
  1942     008D  00D2               	movwf	_duty
  1943     008E  0824               	movf	??_I2C_call_back+2,w
  1944     008F  00D3               	movwf	_duty+1
  1945     0090                     i1l1079:
  1946                           
  1947                           ;newmain.c: 90: PWM5DCH=duty;
  1948     0090  0852               	movf	_duty,w
  1949     0091  002C               	movlb	12	; select bank12
  1950     0092  0098               	movwf	24	;volatile
  1951     0093                     i1l1081:
  1952                           
  1953                           ;newmain.c: 91: PWM6DCH=0x00;
  1954     0093  019B               	clrf	27	;volatile
  1955                           
  1956                           ;newmain.c: 93: }else{
  1957     0094  28C2               	goto	i1l71
  1958     0095                     i1l1083:
  1959     0095  307F               	movlw	127
  1960     0096  00F0               	movwf	___awdiv@divisor
  1961     0097  3000               	movlw	0
  1962     0098  00F1               	movwf	___awdiv@divisor+1
  1963     0099  0826               	movf	I2C_call_back@data,w
  1964     009A  00A2               	movwf	??_I2C_call_back
  1965     009B  01A3               	clrf	??_I2C_call_back+1
  1966     009C  0822               	movf	??_I2C_call_back,w
  1967     009D  00F2               	movwf	___awdiv@dividend
  1968     009E  0823               	movf	??_I2C_call_back+1,w
  1969     009F  00F3               	movwf	___awdiv@dividend+1
  1970     00A0  3180  20C3  3180   	fcall	___awdiv
  1971     00A3  0871               	movf	?___awdiv+1,w
  1972     00A4  00FA               	movwf	___wmul@multiplier+1
  1973     00A5  0870               	movf	?___awdiv,w
  1974     00A6  00F9               	movwf	___wmul@multiplier
  1975     00A7  30FF               	movlw	255
  1976     00A8  00FB               	movwf	___wmul@multiplicand
  1977     00A9  3003               	movlw	3
  1978     00AA  00FC               	movwf	___wmul@multiplicand+1
  1979     00AB  3182  221C  3180   	fcall	___wmul
  1980     00AE                     i1l1085:
  1981                           
  1982                           ;newmain.c: 95: duty=data>>2;
  1983     00AE  0020               	movlb	0	; select bank0
  1984     00AF  0826               	movf	I2C_call_back@data,w
  1985     00B0  00A2               	movwf	??_I2C_call_back
  1986     00B1  3002               	movlw	2
  1987     00B2                     u53_25:
  1988     00B2  36A2               	lsrf	??_I2C_call_back,f
  1989     00B3  0B89               	decfsz	9,f
  1990     00B4  28B2               	goto	u53_25
  1991     00B5  0822               	movf	??_I2C_call_back,w
  1992     00B6  00A3               	movwf	??_I2C_call_back+1
  1993     00B7  01A4               	clrf	??_I2C_call_back+2
  1994     00B8  0823               	movf	??_I2C_call_back+1,w
  1995     00B9  00D2               	movwf	_duty
  1996     00BA  0824               	movf	??_I2C_call_back+2,w
  1997     00BB  00D3               	movwf	_duty+1
  1998     00BC                     i1l1087:
  1999                           
  2000                           ;newmain.c: 96: PWM5DCH=0x00;
  2001     00BC  002C               	movlb	12	; select bank12
  2002     00BD  0198               	clrf	24	;volatile
  2003     00BE                     i1l1089:
  2004                           
  2005                           ;newmain.c: 97: PWM6DCH=(duty);
  2006     00BE  0020               	movlb	0	; select bank0
  2007     00BF  0852               	movf	_duty,w
  2008     00C0  002C               	movlb	12	; select bank12
  2009     00C1  009B               	movwf	27	;volatile
  2010     00C2                     i1l71:
  2011     00C2  0008               	return
  2012     00C3                     __end_of_I2C_call_back:
  2013                           
  2014                           	psect	text8
  2015     021C                     __ptext8:	
  2016 ;; *************** function ___wmul *****************
  2017 ;; Defined at:
  2018 ;;		line 15 in file "/opt/microchip/xc8/v2.41/pic/sources/c90/common/Umul16.c"
  2019 ;; Parameters:    Size  Location     Type
  2020 ;;  multiplier      2    9[COMMON] unsigned int 
  2021 ;;  multiplicand    2   11[COMMON] unsigned int 
  2022 ;; Auto vars:     Size  Location     Type
  2023 ;;  product         2    0[BANK0 ] unsigned int 
  2024 ;; Return value:  Size  Location     Type
  2025 ;;                  2    9[COMMON] unsigned int 
  2026 ;; Registers used:
  2027 ;;		wreg, status,2, status,0
  2028 ;; Tracked objects:
  2029 ;;		On entry : 0/0
  2030 ;;		On exit  : 0/0
  2031 ;;		Unchanged: 0/0
  2032 ;; Data sizes:     COMMON   BANK0   BANK1   BANK2
  2033 ;;      Params:         4       0       0       0
  2034 ;;      Locals:         0       2       0       0
  2035 ;;      Temps:          0       0       0       0
  2036 ;;      Totals:         4       2       0       0
  2037 ;;Total ram usage:        6 bytes
  2038 ;; Hardware stack levels used: 1
  2039 ;; This function calls:
  2040 ;;		Nothing
  2041 ;; This function is called by:
  2042 ;;		_I2C_call_back
  2043 ;; This function uses a non-reentrant model
  2044 ;;
  2045                           
  2046     021C                     ___wmul:	
  2047                           ;psect for function ___wmul
  2048                           
  2049     021C                     i1l969:	
  2050                           ;incstack = 0
  2051                           ; Regs used in ___wmul: [wreg+status,2+status,0]
  2052                           
  2053     021C  0020               	movlb	0	; select bank0
  2054     021D  01A0               	clrf	___wmul@product
  2055     021E  01A1               	clrf	___wmul@product+1
  2056     021F                     i1l971:
  2057     021F  1C79               	btfss	___wmul@multiplier,0
  2058     0220  2A22               	goto	u36_21
  2059     0221  2A23               	goto	u36_20
  2060     0222                     u36_21:
  2061     0222  2A28               	goto	i1l271
  2062     0223                     u36_20:
  2063     0223                     i1l973:
  2064     0223  087B               	movf	___wmul@multiplicand,w
  2065     0224  0020               	movlb	0	; select bank0
  2066     0225  07A0               	addwf	___wmul@product,f
  2067     0226  087C               	movf	___wmul@multiplicand+1,w
  2068     0227  3DA1               	addwfc	___wmul@product+1,f
  2069     0228                     i1l271:
  2070     0228  3001               	movlw	1
  2071     0229                     u37_25:
  2072     0229  35FB               	lslf	___wmul@multiplicand,f
  2073     022A  0DFC               	rlf	___wmul@multiplicand+1,f
  2074     022B  0B89               	decfsz	9,f
  2075     022C  2A29               	goto	u37_25
  2076     022D                     i1l975:
  2077     022D  3001               	movlw	1
  2078     022E                     u38_25:
  2079     022E  36FA               	lsrf	___wmul@multiplier+1,f
  2080     022F  0CF9               	rrf	___wmul@multiplier,f
  2081     0230  0B89               	decfsz	9,f
  2082     0231  2A2E               	goto	u38_25
  2083     0232                     i1l977:
  2084     0232  0879               	movf	___wmul@multiplier,w
  2085     0233  047A               	iorwf	___wmul@multiplier+1,w
  2086     0234  1D03               	btfss	3,2
  2087     0235  2A37               	goto	u39_21
  2088     0236  2A38               	goto	u39_20
  2089     0237                     u39_21:
  2090     0237  2A1F               	goto	i1l971
  2091     0238                     u39_20:
  2092     0238                     i1l979:
  2093     0238  0020               	movlb	0	; select bank0
  2094     0239  0821               	movf	___wmul@product+1,w
  2095     023A  00FA               	movwf	?___wmul+1
  2096     023B  0820               	movf	___wmul@product,w
  2097     023C  00F9               	movwf	?___wmul
  2098     023D                     i1l273:
  2099     023D  0008               	return
  2100     023E                     __end_of___wmul:
  2101                           
  2102                           	psect	text9
  2103     00C3                     __ptext9:	
  2104 ;; *************** function ___awdiv *****************
  2105 ;; Defined at:
  2106 ;;		line 5 in file "/opt/microchip/xc8/v2.41/pic/sources/c90/common/awdiv.c"
  2107 ;; Parameters:    Size  Location     Type
  2108 ;;  divisor         2    0[COMMON] int 
  2109 ;;  dividend        2    2[COMMON] int 
  2110 ;; Auto vars:     Size  Location     Type
  2111 ;;  quotient        2    7[COMMON] int 
  2112 ;;  sign            1    6[COMMON] unsigned char 
  2113 ;;  counter         1    5[COMMON] unsigned char 
  2114 ;; Return value:  Size  Location     Type
  2115 ;;                  2    0[COMMON] int 
  2116 ;; Registers used:
  2117 ;;		wreg, status,2, status,0
  2118 ;; Tracked objects:
  2119 ;;		On entry : 0/0
  2120 ;;		On exit  : 0/0
  2121 ;;		Unchanged: 0/0
  2122 ;; Data sizes:     COMMON   BANK0   BANK1   BANK2
  2123 ;;      Params:         4       0       0       0
  2124 ;;      Locals:         4       0       0       0
  2125 ;;      Temps:          1       0       0       0
  2126 ;;      Totals:         9       0       0       0
  2127 ;;Total ram usage:        9 bytes
  2128 ;; Hardware stack levels used: 1
  2129 ;; This function calls:
  2130 ;;		Nothing
  2131 ;; This function is called by:
  2132 ;;		_I2C_call_back
  2133 ;; This function uses a non-reentrant model
  2134 ;;
  2135                           
  2136     00C3                     ___awdiv:	
  2137                           ;psect for function ___awdiv
  2138                           
  2139     00C3                     i1l983:	
  2140                           ;incstack = 0
  2141                           ; Regs used in ___awdiv: [wreg+status,2+status,0]
  2142                           
  2143     00C3  01F6               	clrf	___awdiv@sign
  2144     00C4                     i1l985:
  2145     00C4  1FF1               	btfss	___awdiv@divisor+1,7
  2146     00C5  28C7               	goto	u40_21
  2147     00C6  28C8               	goto	u40_20
  2148     00C7                     u40_21:
  2149     00C7  28CF               	goto	i1l991
  2150     00C8                     u40_20:
  2151     00C8                     i1l987:
  2152     00C8  09F0               	comf	___awdiv@divisor,f
  2153     00C9  09F1               	comf	___awdiv@divisor+1,f
  2154     00CA  0AF0               	incf	___awdiv@divisor,f
  2155     00CB  1903               	skipnz
  2156     00CC  0AF1               	incf	___awdiv@divisor+1,f
  2157     00CD                     i1l989:
  2158     00CD  01F6               	clrf	___awdiv@sign
  2159     00CE  0AF6               	incf	___awdiv@sign,f
  2160     00CF                     i1l991:
  2161     00CF  1FF3               	btfss	___awdiv@dividend+1,7
  2162     00D0  28D2               	goto	u41_21
  2163     00D1  28D3               	goto	u41_20
  2164     00D2                     u41_21:
  2165     00D2  28DC               	goto	i1l997
  2166     00D3                     u41_20:
  2167     00D3                     i1l993:
  2168     00D3  09F2               	comf	___awdiv@dividend,f
  2169     00D4  09F3               	comf	___awdiv@dividend+1,f
  2170     00D5  0AF2               	incf	___awdiv@dividend,f
  2171     00D6  1903               	skipnz
  2172     00D7  0AF3               	incf	___awdiv@dividend+1,f
  2173     00D8                     i1l995:
  2174     00D8  3001               	movlw	1
  2175     00D9  00F4               	movwf	??___awdiv
  2176     00DA  0874               	movf	??___awdiv,w
  2177     00DB  06F6               	xorwf	___awdiv@sign,f
  2178     00DC                     i1l997:
  2179     00DC  01F7               	clrf	___awdiv@quotient
  2180     00DD  01F8               	clrf	___awdiv@quotient+1
  2181     00DE                     i1l999:
  2182     00DE  0870               	movf	___awdiv@divisor,w
  2183     00DF  0471               	iorwf	___awdiv@divisor+1,w
  2184     00E0  1903               	btfsc	3,2
  2185     00E1  28E3               	goto	u42_21
  2186     00E2  28E4               	goto	u42_20
  2187     00E3                     u42_21:
  2188     00E3  2913               	goto	i1l1019
  2189     00E4                     u42_20:
  2190     00E4                     i1l1001:
  2191     00E4  01F5               	clrf	___awdiv@counter
  2192     00E5  0AF5               	incf	___awdiv@counter,f
  2193     00E6  28F0               	goto	i1l1007
  2194     00E7                     i1l1003:
  2195     00E7  3001               	movlw	1
  2196     00E8                     u43_25:
  2197     00E8  35F0               	lslf	___awdiv@divisor,f
  2198     00E9  0DF1               	rlf	___awdiv@divisor+1,f
  2199     00EA  0B89               	decfsz	9,f
  2200     00EB  28E8               	goto	u43_25
  2201     00EC                     i1l1005:
  2202     00EC  3001               	movlw	1
  2203     00ED  00F4               	movwf	??___awdiv
  2204     00EE  0874               	movf	??___awdiv,w
  2205     00EF  07F5               	addwf	___awdiv@counter,f
  2206     00F0                     i1l1007:
  2207     00F0  1FF1               	btfss	___awdiv@divisor+1,7
  2208     00F1  28F3               	goto	u44_21
  2209     00F2  28F4               	goto	u44_20
  2210     00F3                     u44_21:
  2211     00F3  28E7               	goto	i1l1003
  2212     00F4                     u44_20:
  2213     00F4                     i1l1009:
  2214     00F4  3001               	movlw	1
  2215     00F5                     u45_25:
  2216     00F5  35F7               	lslf	___awdiv@quotient,f
  2217     00F6  0DF8               	rlf	___awdiv@quotient+1,f
  2218     00F7  0B89               	decfsz	9,f
  2219     00F8  28F5               	goto	u45_25
  2220     00F9  0871               	movf	___awdiv@divisor+1,w
  2221     00FA  0273               	subwf	___awdiv@dividend+1,w
  2222     00FB  1D03               	skipz
  2223     00FC  28FF               	goto	u46_25
  2224     00FD  0870               	movf	___awdiv@divisor,w
  2225     00FE  0272               	subwf	___awdiv@dividend,w
  2226     00FF                     u46_25:
  2227     00FF  1C03               	skipc
  2228     0100  2902               	goto	u46_21
  2229     0101  2903               	goto	u46_20
  2230     0102                     u46_21:
  2231     0102  2908               	goto	i1l1015
  2232     0103                     u46_20:
  2233     0103                     i1l1011:
  2234     0103  0870               	movf	___awdiv@divisor,w
  2235     0104  02F2               	subwf	___awdiv@dividend,f
  2236     0105  0871               	movf	___awdiv@divisor+1,w
  2237     0106  3BF3               	subwfb	___awdiv@dividend+1,f
  2238     0107                     i1l1013:
  2239     0107  1477               	bsf	___awdiv@quotient,0
  2240     0108                     i1l1015:
  2241     0108  3001               	movlw	1
  2242     0109                     u47_25:
  2243     0109  36F1               	lsrf	___awdiv@divisor+1,f
  2244     010A  0CF0               	rrf	___awdiv@divisor,f
  2245     010B  0B89               	decfsz	9,f
  2246     010C  2909               	goto	u47_25
  2247     010D                     i1l1017:
  2248     010D  3001               	movlw	1
  2249     010E  02F5               	subwf	___awdiv@counter,f
  2250     010F  1D03               	btfss	3,2
  2251     0110  2912               	goto	u48_21
  2252     0111  2913               	goto	u48_20
  2253     0112                     u48_21:
  2254     0112  28F4               	goto	i1l1009
  2255     0113                     u48_20:
  2256     0113                     i1l1019:
  2257     0113  0876               	movf	___awdiv@sign,w
  2258     0114  1903               	btfsc	3,2
  2259     0115  2917               	goto	u49_21
  2260     0116  2918               	goto	u49_20
  2261     0117                     u49_21:
  2262     0117  291D               	goto	i1l1023
  2263     0118                     u49_20:
  2264     0118                     i1l1021:
  2265     0118  09F7               	comf	___awdiv@quotient,f
  2266     0119  09F8               	comf	___awdiv@quotient+1,f
  2267     011A  0AF7               	incf	___awdiv@quotient,f
  2268     011B  1903               	skipnz
  2269     011C  0AF8               	incf	___awdiv@quotient+1,f
  2270     011D                     i1l1023:
  2271     011D  0878               	movf	___awdiv@quotient+1,w
  2272     011E  00F1               	movwf	?___awdiv+1
  2273     011F  0877               	movf	___awdiv@quotient,w
  2274     0120  00F0               	movwf	?___awdiv
  2275     0121                     i1l424:
  2276     0121  0008               	return
  2277     0122                     __end_of___awdiv:
  2278     007E                     btemp	set	126	;btemp
  2279     007E                     int$flags	set	126
  2280     007E                     wtemp0	set	126
  2281                           
  2282                           	psect	idloc
  2283                           
  2284                           ;Config register IDLOC0 @ 0x8000
  2285                           ;	unspecified, using default values
  2286     8000                     	org	32768
  2287     8000  3FFF               	dw	16383
  2288                           
  2289                           ;Config register IDLOC1 @ 0x8001
  2290                           ;	unspecified, using default values
  2291     8001                     	org	32769
  2292     8001  3FFF               	dw	16383
  2293                           
  2294                           ;Config register IDLOC2 @ 0x8002
  2295                           ;	unspecified, using default values
  2296     8002                     	org	32770
  2297     8002  3FFF               	dw	16383
  2298                           
  2299                           ;Config register IDLOC3 @ 0x8003
  2300                           ;	unspecified, using default values
  2301     8003                     	org	32771
  2302     8003  3FFF               	dw	16383
  2303                           
  2304                           	psect	config
  2305                           
  2306                           ;Config register CONFIG1 @ 0x8007
  2307                           ;	FEXTOSC External Oscillator mode Selection bits
  2308                           ;	FEXTOSC = OFF, Oscillator not enabled
  2309                           ;	Power-up default value for COSC bits
  2310                           ;	RSTOSC = 0x7, unprogrammed default
  2311                           ;	Clock Out Enable bit
  2312                           ;	CLKOUTEN = 0x1, unprogrammed default
  2313                           ;	Clock Switch Enable bit
  2314                           ;	CSWEN = 0x1, unprogrammed default
  2315                           ;	Fail-Safe Clock Monitor Enable
  2316                           ;	FCMEN = 0x1, unprogrammed default
  2317     8007                     	org	32775
  2318     8007  3FFC               	dw	16380
  2319                           
  2320                           ;Config register CONFIG2 @ 0x8008
  2321                           ;	Master Clear Enable bit
  2322                           ;	MCLRE = 0x1, unprogrammed default
  2323                           ;	Power-up Timer Enable bit
  2324                           ;	PWRTE = 0x1, unprogrammed default
  2325                           ;	Watchdog Timer Enable bits
  2326                           ;	WDTE = OFF, WDT disabled; SWDTEN is ignored
  2327                           ;	Low-power BOR enable bit
  2328                           ;	LPBOREN = 0x1, unprogrammed default
  2329                           ;	Brown-out Reset Enable bits
  2330                           ;	BOREN = 0x3, unprogrammed default
  2331                           ;	Brown-out Reset Voltage selection bit
  2332                           ;	BORV = 0x1, unprogrammed default
  2333                           ;	PPSLOCK bit One-Way Set Enable bit
  2334                           ;	PPS1WAY = 0x1, unprogrammed default
  2335                           ;	Stack Overflow/Underflow Reset Enable bit
  2336                           ;	STVREN = 0x1, unprogrammed default
  2337                           ;	Debugger enable bit
  2338                           ;	DEBUG = 0x1, unprogrammed default
  2339     8008                     	org	32776
  2340     8008  3FF3               	dw	16371
  2341                           
  2342                           ;Config register CONFIG3 @ 0x8009
  2343                           ;	unspecified, using default values
  2344                           ;	User NVM self-write protection bits
  2345                           ;	WRT = 0x3, unprogrammed default
  2346                           ;	Low Voltage Programming Enable bit
  2347                           ;	LVP = 0x1, unprogrammed default
  2348     8009                     	org	32777
  2349     8009  3FFF               	dw	16383
  2350                           
  2351                           ;Config register CONFIG4 @ 0x800A
  2352                           ;	unspecified, using default values
  2353                           ;	User NVM Program Memory Code Protection bit
  2354                           ;	CP = 0x1, unprogrammed default
  2355                           ;	Data NVM Memory Code Protection bit
  2356                           ;	CPD = 0x1, unprogrammed default
  2357     800A                     	org	32778
  2358     800A  3FFF               	dw	16383

Data Sizes:
    Strings     0
    Constant    0
    Data        0
    BSS         7
    Persistent  32
    Stack       0

Auto Spaces:
    Space          Size  Autos    Used
    COMMON           14     13      14
    BANK0            80     46      52
    BANK1            80      0       0
    BANK2            80      0       0

Pointer List with Targets:

    None.

Critical Paths under _main in COMMON

    None.

Critical Paths under __ISR in COMMON

    _I2C_call_back->___wmul
    ___wmul->___awdiv

Critical Paths under _main in BANK0

    _main->___lldiv
    ___lldiv->___lmul

Critical Paths under __ISR in BANK0

    __ISR->_I2C_call_back
    _I2C_call_back->___wmul

Critical Paths under _main in BANK1

    None.

Critical Paths under __ISR in BANK1

    None.

Critical Paths under _main in BANK2

    None.

Critical Paths under __ISR in BANK2

    None.

Call Graph Tables:

 ---------------------------------------------------------------------------------
 (Depth) Function   	        Calls       Base Space   Used Autos Params    Refs
 ---------------------------------------------------------------------------------
 (0) _main                                                10     6      4     649
                                             37 BANK0      9     5      4
                            ___lldiv
                             ___lmul
                              _setup
                           _setupI2C
                           _setupPWM
 ---------------------------------------------------------------------------------
 (1) _setupPWM                                             0     0      0       0
 ---------------------------------------------------------------------------------
 (1) _setupI2C                                             1     1      0      22
                                             11 BANK0      1     1      0
 ---------------------------------------------------------------------------------
 (1) _setup                                                0     0      0       0
 ---------------------------------------------------------------------------------
 (1) ___lmul                                              12     4      8     244
                                             11 BANK0     12     4      8
 ---------------------------------------------------------------------------------
 (1) ___lldiv                                             14     6      8     314
                                             23 BANK0     14     6      8
                             ___lmul (ARG)
 ---------------------------------------------------------------------------------
 Estimated maximum stack depth 1
 ---------------------------------------------------------------------------------
 (Depth) Function   	        Calls       Base Space   Used Autos Params    Refs
 ---------------------------------------------------------------------------------
 (2) __ISR                                                 4     4      0    1158
                                              7 BANK0      4     4      0
                      _I2C_call_back
 ---------------------------------------------------------------------------------
 (3) _I2C_call_back                                        9     9      0    1158
                                              2 BANK0      5     5      0
                            ___awdiv
                             ___wmul
 ---------------------------------------------------------------------------------
 (4) ___wmul                                               6     2      4     396
                                              9 COMMON     4     0      4
                                              0 BANK0      2     2      0
                            ___awdiv (ARG)
 ---------------------------------------------------------------------------------
 (4) ___awdiv                                              9     5      4     604
                                              0 COMMON     9     5      4
 ---------------------------------------------------------------------------------
 Estimated maximum stack depth 4
 ---------------------------------------------------------------------------------

 Call Graph Graphs:

 _main (ROOT)
   ___lldiv
     ___lmul (ARG)
   ___lmul
   _setup
   _setupI2C
   _setupPWM

 __ISR (ROOT)
   _I2C_call_back
     ___awdiv
     ___wmul
       ___awdiv (ARG)

 Address spaces:
Name               Size   Autos  Total    Cost      Usage
BIGRAM              F0      0       0       0        0.0%
EEDATA             100      0       0       0        0.0%
NULL                 0      0       0       0        0.0%
CODE                 0      0       0       0        0.0%
BITCOMMON            E      0       0       1        0.0%
BITSFR0              0      0       0       1        0.0%
SFR0                 0      0       0       1        0.0%
COMMON               E      D       E       2      100.0%
BITSFR1              0      0       0       2        0.0%
SFR1                 0      0       0       2        0.0%
BITSFR2              0      0       0       3        0.0%
SFR2                 0      0       0       3        0.0%
STACK                0      0       0       3        0.0%
BITSFR3              0      0       0       4        0.0%
SFR3                 0      0       0       4        0.0%
ABS                  0      0      42       4        0.0%
BITBANK0            50      0       0       5        0.0%
BITSFR4              0      0       0       5        0.0%
SFR4                 0      0       0       5        0.0%
BANK0               50     2E      34       6       65.0%
BITSFR5              0      0       0       6        0.0%
SFR5                 0      0       0       6        0.0%
BITBANK1            50      0       0       7        0.0%
BITSFR6              0      0       0       7        0.0%
SFR6                 0      0       0       7        0.0%
BANK1               50      0       0       8        0.0%
BITSFR7              0      0       0       8        0.0%
SFR7                 0      0       0       8        0.0%
BITBANK2            50      0       0       9        0.0%
BITSFR8              0      0       0       9        0.0%
SFR8                 0      0       0       9        0.0%
BANK2               50      0       0      10        0.0%
BITSFR9              0      0       0      10        0.0%
SFR9                 0      0       0      10        0.0%
BITSFR10             0      0       0      11        0.0%
SFR10                0      0       0      11        0.0%
DATA                 0      0      42      11        0.0%
BITSFR11             0      0       0      12        0.0%
SFR11                0      0       0      12        0.0%
BITSFR12             0      0       0      13        0.0%
SFR12                0      0       0      13        0.0%
BITSFR13             0      0       0      14        0.0%
SFR13                0      0       0      14        0.0%
BITSFR14             0      0       0      15        0.0%
SFR14                0      0       0      15        0.0%
BITSFR15             0      0       0      16        0.0%
SFR15                0      0       0      16        0.0%
BITSFR16             0      0       0      17        0.0%
SFR16                0      0       0      17        0.0%
BITSFR17             0      0       0      18        0.0%
SFR17                0      0       0      18        0.0%
BITSFR18             0      0       0      19        0.0%
SFR18                0      0       0      19        0.0%
BITSFR19             0      0       0      20        0.0%
SFR19                0      0       0      20        0.0%
BITSFR20             0      0       0      21        0.0%
SFR20                0      0       0      21        0.0%
BITSFR21             0      0       0      22        0.0%
SFR21                0      0       0      22        0.0%
BITSFR22             0      0       0      23        0.0%
SFR22                0      0       0      23        0.0%
BITSFR23             0      0       0      24        0.0%
SFR23                0      0       0      24        0.0%
BITSFR24             0      0       0      25        0.0%
SFR24                0      0       0      25        0.0%
BITSFR25             0      0       0      26        0.0%
SFR25                0      0       0      26        0.0%
BITSFR26             0      0       0      27        0.0%
SFR26                0      0       0      27        0.0%
BITSFR27             0      0       0      28        0.0%
SFR27                0      0       0      28        0.0%
BITSFR28             0      0       0      29        0.0%
SFR28                0      0       0      29        0.0%
BITSFR29             0      0       0      30        0.0%
SFR29                0      0       0      30        0.0%
BITSFR30             0      0       0      31        0.0%
SFR30                0      0       0      31        0.0%
BITSFR31             0      0       0      32        0.0%
SFR31                0      0       0      32        0.0%


Microchip Technology PIC Macro Assembler V2.41 build 20230208172133 
Symbol Table                                                                                   Sat Mar 16 23:29:33 2024

                      _a 007D                       l63 021B                       l66 025C  
           ___awdiv@sign 0076      ___wmul@multiplicand 007B                      l106 024D  
                    l307 017C                      l285 01F9                      _GIE 005F  
                    _PR2 001E                      u600 0145                      u601 0144  
                    u620 015E                      u540 01D3                      u621 015D  
                    u541 01D2                      u615 0146                      u640 0174  
                    u641 0173                      u625 015A                      u570 01F1  
                    u635 0168                      u571 01F0                      u555 01DC  
                    u580 0133                      u581 0132                      u565 01E3  
                    u595 0137                      wreg 0009                     l1101 01F1  
                   l1111 0141                     l1031 0207                     l1121 0167  
                   l1113 0145                     l1105 0122                     l1041 0218  
                   l1033 020F                     l1123 016E                     l1115 014C  
                   l1107 0133                     l1035 0211                     l1027 01FA  
                   l1051 0247                     l1043 0240                     l1131 0187  
                   l1117 015E                     l1109 0136                     l1125 0174  
                   l1037 0213                     l1029 01FF                     l1053 0248  
                   l1045 0243                     l1061 024E                     l1133 0187  
                   l1119 0166                     l1039 0216                     l1055 0249  
                   l1047 0244                     l1063 0256                     l1135 01B4  
                   l1057 024B                     l1049 0245                     l1065 0257  
                   l1137 01BE                     l1129 017D                     l1091 01C6  
                   l1059 024C                     l1067 025A                     l1139 01C0  
                   l1093 01CF                     l1069 025B                     l1095 01D3  
                   l1097 01DB                     l1099 01E2                     _PEIE 005E  
                   i1l71 00C2                     __ISR 0004                     _main 017D  
                   _duty 0052                     btemp 007E                     start 004B  
                  ?__ISR 0070                    ?_main 0045          __end_of___awdiv 0122  
        __end_of___lldiv 017D          ___awdiv@divisor 0070                    _T2CON 001F  
                  i1l112 002A                    i1l113 0024                    i1l115 0046  
                  i1l119 0049                    i1l271 0228                    i1l424 0121  
                  i1l273 023D                    i1l971 021F                    i1l973 0223  
                  i1l991 00CF                    i1l983 00C3                    i1l975 022D  
                  i1l993 00D3                    i1l985 00C4                    i1l977 0232  
                  i1l969 021C                    i1l995 00D8                    i1l987 00C8  
                  i1l979 0238                    i1l997 00DC                    i1l989 00CD  
                  i1l999 00DE          ___awdiv@counter 0075                    u40_20 00C8  
                  u40_21 00C7                    u41_20 00D3                    u41_21 00D2  
                  u42_20 00E4                    u42_21 00E3                    u50_25 005C  
                  u51_20 0067                    u51_21 0066                    u43_25 00E8  
                  u44_20 00F4                    u36_20 0223                    u44_21 00F3  
                  u36_21 0222                    u52_25 0086                    u45_25 00F5  
                  u37_25 0229                    u53_25 00B2                    u46_20 0103  
                  u70_20 0045                    u46_21 0102                    u70_21 0044  
                  u46_25 00FF                    u38_25 022E                    u39_20 0238  
                  u39_21 0237                    u47_25 0109                    u48_20 0113  
                  u48_21 0112                    u49_20 0118                    u65_20 000B  
                  u49_21 0117                    u65_21 000A                    u66_20 0010  
                  u66_21 000F                    u67_20 0023                    u67_21 0022  
                  u68_20 0028                    u68_21 0027                    u69_20 002E  
                  u69_21 002D      ___lmul@multiplicand 002F                    _setup 01FA  
                  main@b 004B                    status 0003                    wtemp0 007E  
           __end_of__ISR 004B          __initialization 004C             __end_of_main 01C6  
                 ??__ISR 0027                   ??_main 0049         ___awdiv@dividend 0072  
                 ?_setup 0070                   _ANSELA 018C                   _RA1PPS 0E91  
                 _RA2PPS 0E92                   _RA4PPS 0E94                   _RA5PPS 0E95  
                 i1l1001 00E4                   i1l1011 0103                   i1l1003 00E7  
                 i1l1021 0118                   i1l1013 0107                   i1l1005 00EC  
                 i1l1023 011D                   i1l1015 0108                   i1l1007 00F0  
                 i1l1017 010D                   i1l1009 00F4                   i1l1019 0113  
                 i1l1141 0006                   i1l1071 0059                   i1l1151 0028  
                 i1l1143 000B                   i1l1081 0093                   i1l1073 0067  
                 i1l1153 002E                   i1l1145 0010                   i1l1075 0069  
                 i1l1083 0095                   i1l1155 003C                   i1l1147 001E  
                 i1l1085 00AE                   i1l1077 0082                   i1l1157 0040  
                 i1l1149 0023                   i1l1087 00BC                   i1l1079 0090  
                 i1l1159 0045                   i1l1089 00BE                   _OSCFRQ 091F  
                 _SSP1IE 048B                   _SSP1IF 008B                   _TRISA1 0461  
                 _TRISA2 0462                   _TRISA4 0464                   _TRISA5 0465  
  setupI2C@SLAVE_ADDRESS 002B                   ___lmul 01C6                   ___wmul 021C  
              ??___awdiv 0074                ??___lldiv 003F         ___awdiv@quotient 0077  
       __end_of_setupI2C 024E         __end_of_setupPWM 025D  __end_of__initialization 0054  
         __pcstackCOMMON 0070            __end_of_setup 021C            _I2C_call_back 0057  
                ??_setup 002B               __pbssBANK0 004E               __pmaintext 017D  
                ?___lmul 002B                  ?___wmul 0079               __pintentry 0004  
         ___lmul@product 0033           ?_I2C_call_back 0070                  _OSCCON1 0919  
                _PWM5DCH 0618                  _PWM5DCL 0617                  _PWM6DCH 061B  
                _PWM6DCL 061A                  _PWM5CON 0619                  _PWM6CON 061C  
                _SSP1ADD 0212                  _SSP1BUF 0211                ?_setupI2C 0070  
              ?_setupPWM 0070                  ___awdiv 00C3                  ___lldiv 0122  
                __ptext1 024E                  __ptext2 023E                  __ptext3 01FA  
                __ptext4 01C6                  __ptext5 0122                  __ptext7 0057  
                __ptext8 021C                  __ptext9 00C3     end_of_initialization 0054  
      I2C_call_back@data 0026          ___lldiv@divisor 0037          ___lldiv@counter 0044  
             ??_setupI2C 002B               ??_setupPWM 002B          ??_I2C_call_back 0022  
         __end_of___lmul 01FA           __end_of___wmul 023E      start_initialization 004C  
               ??___lmul 0033                 ??___wmul 007D              __pbssCOMMON 007D  
              ___latbits 0000            __pcstackBANK0 0020                 ?___awdiv 0070  
               ?___lldiv 0037           I2C_call_back@a 0025             _receivedData 004E  
         ___wmul@product 0020                 _SSP1CON1 0215                 _SSP1CON2 0216  
               _SSP1CON3 0217                 _SSP1STAT 0214        ___wmul@multiplier 0079  
      ___lmul@multiplier 002B    __end_of_I2C_call_back 00C3             _SSP1CON1bits 0215  
           _SSP1CON2bits 0216                 _setupI2C 023E                 _setupPWM 024E  
               int$flags 007E                 main@argc 0045                 main@argv 0047  
           _SSP1STATbits 0214                 main@duty 004D                 intlevel1 0000  
       ___lldiv@dividend 003B              _SSP1CONbits 0215               _SSP1DATPPS 0E21  
             _SSP1CLKPPS 0E20         ___lldiv@quotient 0040  
